ARM GAS  C:\Users\srhi\AppData\Local\Temp\ccZFmaSx.s 			page 1


   1              		.syntax unified
   2              		.cpu cortex-m0
   3              		.fpu softvfp
   4              		.eabi_attribute 20, 1
   5              		.eabi_attribute 21, 1
   6              		.eabi_attribute 23, 3
   7              		.eabi_attribute 24, 1
   8              		.eabi_attribute 25, 1
   9              		.eabi_attribute 26, 1
  10              		.eabi_attribute 30, 1
  11              		.eabi_attribute 34, 0
  12              		.eabi_attribute 18, 4
  13              		.thumb
  14              		.syntax unified
  15              		.file	"CapSense_TunerHelper.c"
  16              		.text
  17              	.Ltext0:
  18              		.cfi_sections	.debug_frame
  19              		.section	.text.CapSense_TunerStart,"ax",%progbits
  20              		.align	2
  21              		.global	CapSense_TunerStart
  22              		.code	16
  23              		.thumb_func
  24              		.type	CapSense_TunerStart, %function
  25              	CapSense_TunerStart:
  26              	.LFB32:
  27              		.file 1 "Generated_Source\\PSoC4\\CapSense_TunerHelper.c"
   1:Generated_Source\PSoC4/CapSense_TunerHelper.c **** /*******************************************************************************
   2:Generated_Source\PSoC4/CapSense_TunerHelper.c **** * File Name: CapSense_TunerHelper.c
   3:Generated_Source\PSoC4/CapSense_TunerHelper.c **** * Version 2.60
   4:Generated_Source\PSoC4/CapSense_TunerHelper.c **** *
   5:Generated_Source\PSoC4/CapSense_TunerHelper.c **** * Description:
   6:Generated_Source\PSoC4/CapSense_TunerHelper.c **** *  This file provides the source code of the Tuner helper APIs for the CapSense CSD
   7:Generated_Source\PSoC4/CapSense_TunerHelper.c **** *  component.
   8:Generated_Source\PSoC4/CapSense_TunerHelper.c **** *
   9:Generated_Source\PSoC4/CapSense_TunerHelper.c **** * Note:
  10:Generated_Source\PSoC4/CapSense_TunerHelper.c **** *
  11:Generated_Source\PSoC4/CapSense_TunerHelper.c **** ********************************************************************************
  12:Generated_Source\PSoC4/CapSense_TunerHelper.c **** * Copyright 2013-2016, Cypress Semiconductor Corporation.  All rights reserved.
  13:Generated_Source\PSoC4/CapSense_TunerHelper.c **** * You may use this file only in accordance with the license, terms, conditions,
  14:Generated_Source\PSoC4/CapSense_TunerHelper.c **** * disclaimers, and limitations in the end user license agreement accompanying
  15:Generated_Source\PSoC4/CapSense_TunerHelper.c **** * the software package with which this file was provided.
  16:Generated_Source\PSoC4/CapSense_TunerHelper.c **** *******************************************************************************/
  17:Generated_Source\PSoC4/CapSense_TunerHelper.c **** 
  18:Generated_Source\PSoC4/CapSense_TunerHelper.c **** #include "CapSense_TunerHelper.h"
  19:Generated_Source\PSoC4/CapSense_TunerHelper.c **** #include "cyapicallbacks.h"
  20:Generated_Source\PSoC4/CapSense_TunerHelper.c **** 
  21:Generated_Source\PSoC4/CapSense_TunerHelper.c **** #if (CapSense_TUNER_API_GENERATE)
  22:Generated_Source\PSoC4/CapSense_TunerHelper.c ****     #include "EZI2C.h"
  23:Generated_Source\PSoC4/CapSense_TunerHelper.c ****     #include "EZI2C_EZI2C.h"
  24:Generated_Source\PSoC4/CapSense_TunerHelper.c ****     volatile CapSense_MAILBOXES CapSense_mailboxesComm;
  25:Generated_Source\PSoC4/CapSense_TunerHelper.c **** #endif  /* (CapSense_TUNER_API_GENERATE) */
  26:Generated_Source\PSoC4/CapSense_TunerHelper.c **** 
  27:Generated_Source\PSoC4/CapSense_TunerHelper.c **** /* `#START CapSense_TunerHelper_HEADER` */
  28:Generated_Source\PSoC4/CapSense_TunerHelper.c **** 
  29:Generated_Source\PSoC4/CapSense_TunerHelper.c **** /* `#END` */
  30:Generated_Source\PSoC4/CapSense_TunerHelper.c **** 
ARM GAS  C:\Users\srhi\AppData\Local\Temp\ccZFmaSx.s 			page 2


  31:Generated_Source\PSoC4/CapSense_TunerHelper.c **** /*******************************************************************************
  32:Generated_Source\PSoC4/CapSense_TunerHelper.c **** * Function Name: CapSense_TunerStart
  33:Generated_Source\PSoC4/CapSense_TunerHelper.c **** ********************************************************************************
  34:Generated_Source\PSoC4/CapSense_TunerHelper.c **** *
  35:Generated_Source\PSoC4/CapSense_TunerHelper.c **** * Summary:
  36:Generated_Source\PSoC4/CapSense_TunerHelper.c **** *  Initializes the CapSense CSD component and EzI2C communication component to use
  37:Generated_Source\PSoC4/CapSense_TunerHelper.c **** *  a mailbox data structure for communication with the Tuner GUI.
  38:Generated_Source\PSoC4/CapSense_TunerHelper.c **** *  Start the scanning, after initialization is complete.
  39:Generated_Source\PSoC4/CapSense_TunerHelper.c **** *
  40:Generated_Source\PSoC4/CapSense_TunerHelper.c **** * Parameters:
  41:Generated_Source\PSoC4/CapSense_TunerHelper.c **** *  None
  42:Generated_Source\PSoC4/CapSense_TunerHelper.c **** *
  43:Generated_Source\PSoC4/CapSense_TunerHelper.c **** * Return:
  44:Generated_Source\PSoC4/CapSense_TunerHelper.c **** *  None
  45:Generated_Source\PSoC4/CapSense_TunerHelper.c **** *
  46:Generated_Source\PSoC4/CapSense_TunerHelper.c **** * Global Variables:
  47:Generated_Source\PSoC4/CapSense_TunerHelper.c **** *  None
  48:Generated_Source\PSoC4/CapSense_TunerHelper.c **** *
  49:Generated_Source\PSoC4/CapSense_TunerHelper.c **** *******************************************************************************/
  50:Generated_Source\PSoC4/CapSense_TunerHelper.c **** void CapSense_TunerStart(void)
  51:Generated_Source\PSoC4/CapSense_TunerHelper.c **** {
  28              		.loc 1 51 0
  29              		.cfi_startproc
  30              		@ args = 0, pretend = 0, frame = 0
  31              		@ frame_needed = 0, uses_anonymous_args = 0
  32 0000 10B5     		push	{r4, lr}
  33              		.cfi_def_cfa_offset 8
  34              		.cfi_offset 4, -8
  35              		.cfi_offset 14, -4
  52:Generated_Source\PSoC4/CapSense_TunerHelper.c ****     #if (0u != CapSense_TUNER_API_GENERATE)
  53:Generated_Source\PSoC4/CapSense_TunerHelper.c **** 
  54:Generated_Source\PSoC4/CapSense_TunerHelper.c ****         /* Init mbx and quick check */
  55:Generated_Source\PSoC4/CapSense_TunerHelper.c ****         CapSense_InitMailbox(&CapSense_mailboxesComm.csdMailbox);
  36              		.loc 1 55 0
  37 0002 0A4C     		ldr	r4, .L2
  38 0004 2000     		movs	r0, r4
  39 0006 FFF7FEFF 		bl	CapSense_InitMailbox
  40              	.LVL0:
  56:Generated_Source\PSoC4/CapSense_TunerHelper.c ****         CapSense_mailboxesComm.numMailBoxes = CapSense_DEFAULT_MAILBOXES_NUMBER;
  41              		.loc 1 56 0
  42 000a 013C     		subs	r4, r4, #1
  43 000c 0123     		movs	r3, #1
  44 000e 2370     		strb	r3, [r4]
  57:Generated_Source\PSoC4/CapSense_TunerHelper.c **** 
  58:Generated_Source\PSoC4/CapSense_TunerHelper.c ****         /* Start CapSense and baselines */
  59:Generated_Source\PSoC4/CapSense_TunerHelper.c ****         CapSense_Start();
  45              		.loc 1 59 0
  46 0010 FFF7FEFF 		bl	CapSense_Start
  47              	.LVL1:
  60:Generated_Source\PSoC4/CapSense_TunerHelper.c **** 
  61:Generated_Source\PSoC4/CapSense_TunerHelper.c ****         /* Initialize baselines */
  62:Generated_Source\PSoC4/CapSense_TunerHelper.c ****         #if(0u != CapSense_CSHL_API_GENERATE)
  63:Generated_Source\PSoC4/CapSense_TunerHelper.c ****             CapSense_InitializeEnabledBaselines();
  48              		.loc 1 63 0
  49 0014 FFF7FEFF 		bl	CapSense_InitializeEnabledBaselines
  50              	.LVL2:
  64:Generated_Source\PSoC4/CapSense_TunerHelper.c ****         #endif /* (0u != CapSense_CSHL_API_GENERATE) */
ARM GAS  C:\Users\srhi\AppData\Local\Temp\ccZFmaSx.s 			page 3


  65:Generated_Source\PSoC4/CapSense_TunerHelper.c **** 
  66:Generated_Source\PSoC4/CapSense_TunerHelper.c ****         /* Start EzI2C, clears buf pointers */
  67:Generated_Source\PSoC4/CapSense_TunerHelper.c ****         EZI2C_Start();
  51              		.loc 1 67 0
  52 0018 FFF7FEFF 		bl	EZI2C_Start
  53              	.LVL3:
  68:Generated_Source\PSoC4/CapSense_TunerHelper.c **** 
  69:Generated_Source\PSoC4/CapSense_TunerHelper.c ****         /* Setup EzI2C buffers */
  70:Generated_Source\PSoC4/CapSense_TunerHelper.c ****         EZI2C_EzI2CSetBuffer1(sizeof(CapSense_mailboxesComm), sizeof(CapSense_mailboxesComm),
  54              		.loc 1 70 0
  55 001c 2200     		movs	r2, r4
  56 001e 1421     		movs	r1, #20
  57 0020 1420     		movs	r0, #20
  58 0022 FFF7FEFF 		bl	EZI2C_EzI2CSetBuffer1
  59              	.LVL4:
  71:Generated_Source\PSoC4/CapSense_TunerHelper.c ****                                                    (volatile uint8 *) &CapSense_mailboxesComm);
  72:Generated_Source\PSoC4/CapSense_TunerHelper.c **** 
  73:Generated_Source\PSoC4/CapSense_TunerHelper.c ****         /* Starts scan all enabled sensors */
  74:Generated_Source\PSoC4/CapSense_TunerHelper.c ****         CapSense_ScanEnabledWidgets();
  60              		.loc 1 74 0
  61 0026 FFF7FEFF 		bl	CapSense_ScanEnabledWidgets
  62              	.LVL5:
  75:Generated_Source\PSoC4/CapSense_TunerHelper.c **** 
  76:Generated_Source\PSoC4/CapSense_TunerHelper.c ****     #endif  /* (0u != CapSense_TUNER_API_GENERATE) */
  77:Generated_Source\PSoC4/CapSense_TunerHelper.c **** }
  63              		.loc 1 77 0
  64              		@ sp needed
  65 002a 10BD     		pop	{r4, pc}
  66              	.L3:
  67              		.align	2
  68              	.L2:
  69 002c 01000000 		.word	CapSense_mailboxesComm+1
  70              		.cfi_endproc
  71              	.LFE32:
  72              		.size	CapSense_TunerStart, .-CapSense_TunerStart
  73              		.section	.text.CapSense_ProcessAllWidgets,"ax",%progbits
  74              		.align	2
  75              		.global	CapSense_ProcessAllWidgets
  76              		.code	16
  77              		.thumb_func
  78              		.type	CapSense_ProcessAllWidgets, %function
  79              	CapSense_ProcessAllWidgets:
  80              	.LFB34:
  78:Generated_Source\PSoC4/CapSense_TunerHelper.c **** 
  79:Generated_Source\PSoC4/CapSense_TunerHelper.c **** 
  80:Generated_Source\PSoC4/CapSense_TunerHelper.c **** /*******************************************************************************
  81:Generated_Source\PSoC4/CapSense_TunerHelper.c **** * Function Name: CapSense_TunerComm
  82:Generated_Source\PSoC4/CapSense_TunerHelper.c **** ********************************************************************************
  83:Generated_Source\PSoC4/CapSense_TunerHelper.c **** *
  84:Generated_Source\PSoC4/CapSense_TunerHelper.c **** * Summary:
  85:Generated_Source\PSoC4/CapSense_TunerHelper.c **** *  This function is blocking. It waits till scanning loop is completed and applies
  86:Generated_Source\PSoC4/CapSense_TunerHelper.c **** *  the new parameters from the Tuner GUI if available (the manual tuning mode only). Updates
  87:Generated_Source\PSoC4/CapSense_TunerHelper.c **** *  the enabled baselines and state of widgets. Waits while the Tuner GUI reports that
  88:Generated_Source\PSoC4/CapSense_TunerHelper.c **** *  the mailbox content  could be modified. Then loads the report data into the outbox
  89:Generated_Source\PSoC4/CapSense_TunerHelper.c **** *  and sets a busy flag. Starts a new scanning loop.
  90:Generated_Source\PSoC4/CapSense_TunerHelper.c **** *
  91:Generated_Source\PSoC4/CapSense_TunerHelper.c **** * Parameters:
ARM GAS  C:\Users\srhi\AppData\Local\Temp\ccZFmaSx.s 			page 4


  92:Generated_Source\PSoC4/CapSense_TunerHelper.c **** *  None
  93:Generated_Source\PSoC4/CapSense_TunerHelper.c **** *
  94:Generated_Source\PSoC4/CapSense_TunerHelper.c **** * Return:
  95:Generated_Source\PSoC4/CapSense_TunerHelper.c **** *  None
  96:Generated_Source\PSoC4/CapSense_TunerHelper.c **** *
  97:Generated_Source\PSoC4/CapSense_TunerHelper.c **** * Global Variables:
  98:Generated_Source\PSoC4/CapSense_TunerHelper.c **** *  None
  99:Generated_Source\PSoC4/CapSense_TunerHelper.c **** *
 100:Generated_Source\PSoC4/CapSense_TunerHelper.c **** *******************************************************************************/
 101:Generated_Source\PSoC4/CapSense_TunerHelper.c **** void CapSense_TunerComm(void)
 102:Generated_Source\PSoC4/CapSense_TunerHelper.c **** {
 103:Generated_Source\PSoC4/CapSense_TunerHelper.c ****     #if (0u != CapSense_TUNER_API_GENERATE)
 104:Generated_Source\PSoC4/CapSense_TunerHelper.c ****         if (0u == CapSense_IsBusy())
 105:Generated_Source\PSoC4/CapSense_TunerHelper.c ****         {
 106:Generated_Source\PSoC4/CapSense_TunerHelper.c ****             /* Apply new settings */
 107:Generated_Source\PSoC4/CapSense_TunerHelper.c ****             #if((CapSense_TUNING_METHOD != CapSense__TUNING_NONE) &&\
 108:Generated_Source\PSoC4/CapSense_TunerHelper.c ****                 (0u != CapSense_TOTAL_TRACKPAD_GESTURES_COUNT) ||\
 109:Generated_Source\PSoC4/CapSense_TunerHelper.c ****                 (CapSense_TUNING_METHOD == CapSense__TUNING_MANUAL))
 110:Generated_Source\PSoC4/CapSense_TunerHelper.c **** 
 111:Generated_Source\PSoC4/CapSense_TunerHelper.c ****                 CapSense_ReadMessage(&CapSense_mailboxesComm.csdMailbox);
 112:Generated_Source\PSoC4/CapSense_TunerHelper.c **** 
 113:Generated_Source\PSoC4/CapSense_TunerHelper.c ****             #endif  /* ((CapSense_TUNING_METHOD != CapSense__TUNING_NONE) &&\
 114:Generated_Source\PSoC4/CapSense_TunerHelper.c ****                         (0u != CapSense_TOTAL_TRACKPAD_GESTURES_COUNT) ||\
 115:Generated_Source\PSoC4/CapSense_TunerHelper.c ****                         (CapSense_TUNING_METHOD == CapSense__TUNING_MANUAL)) */
 116:Generated_Source\PSoC4/CapSense_TunerHelper.c **** 
 117:Generated_Source\PSoC4/CapSense_TunerHelper.c ****             #if(0u != CapSense_CSHL_API_GENERATE)
 118:Generated_Source\PSoC4/CapSense_TunerHelper.c ****                 /* Update all baselines and process all widgets */
 119:Generated_Source\PSoC4/CapSense_TunerHelper.c ****                 CapSense_UpdateEnabledBaselines();
 120:Generated_Source\PSoC4/CapSense_TunerHelper.c ****                 CapSense_ProcessAllWidgets(&CapSense_mailboxesComm.csdMailbox.outbox);
 121:Generated_Source\PSoC4/CapSense_TunerHelper.c ****             #endif /* (0u != CapSense_CSHL_API_GENERATE) */
 122:Generated_Source\PSoC4/CapSense_TunerHelper.c **** 
 123:Generated_Source\PSoC4/CapSense_TunerHelper.c ****             CapSense_PostMessage(&CapSense_mailboxesComm.csdMailbox);
 124:Generated_Source\PSoC4/CapSense_TunerHelper.c **** 
 125:Generated_Source\PSoC4/CapSense_TunerHelper.c ****             /* Enable EZI2C interrupts, after scan complete */
 126:Generated_Source\PSoC4/CapSense_TunerHelper.c ****             EZI2C_EnableInt();
 127:Generated_Source\PSoC4/CapSense_TunerHelper.c **** 
 128:Generated_Source\PSoC4/CapSense_TunerHelper.c ****             while((CapSense_mailboxesComm.csdMailbox.type != CapSense_TYPE_ID) ||
 129:Generated_Source\PSoC4/CapSense_TunerHelper.c ****                   (0u != (EZI2C_EzI2CGetActivity() & EZI2C_EZI2C_STATUS_BUSY))){}
 130:Generated_Source\PSoC4/CapSense_TunerHelper.c **** 
 131:Generated_Source\PSoC4/CapSense_TunerHelper.c ****             /* Disable EZI2C interrupts, while scanning */
 132:Generated_Source\PSoC4/CapSense_TunerHelper.c ****             EZI2C_DisableInt();
 133:Generated_Source\PSoC4/CapSense_TunerHelper.c **** 
 134:Generated_Source\PSoC4/CapSense_TunerHelper.c ****             /* Start scan all sensors */
 135:Generated_Source\PSoC4/CapSense_TunerHelper.c ****             CapSense_ScanEnabledWidgets();
 136:Generated_Source\PSoC4/CapSense_TunerHelper.c ****         }
 137:Generated_Source\PSoC4/CapSense_TunerHelper.c ****     #endif /* (0u != CapSense_TUNER_API_GENERATE) */
 138:Generated_Source\PSoC4/CapSense_TunerHelper.c **** }
 139:Generated_Source\PSoC4/CapSense_TunerHelper.c **** 
 140:Generated_Source\PSoC4/CapSense_TunerHelper.c **** 
 141:Generated_Source\PSoC4/CapSense_TunerHelper.c **** #if ((0u != CapSense_TUNER_API_GENERATE) && (0u != CapSense_CSHL_API_GENERATE))
 142:Generated_Source\PSoC4/CapSense_TunerHelper.c ****     /*******************************************************************************
 143:Generated_Source\PSoC4/CapSense_TunerHelper.c ****     * Function Name: CapSense_ProcessAllWidgets
 144:Generated_Source\PSoC4/CapSense_TunerHelper.c ****     ********************************************************************************
 145:Generated_Source\PSoC4/CapSense_TunerHelper.c ****     *
 146:Generated_Source\PSoC4/CapSense_TunerHelper.c ****     * Summary:
 147:Generated_Source\PSoC4/CapSense_TunerHelper.c ****     *  Calls the required functions to update all the widgets' state:
 148:Generated_Source\PSoC4/CapSense_TunerHelper.c ****     *   - CapSense_GetCentroidPos() - calls only if linear sliders are
ARM GAS  C:\Users\srhi\AppData\Local\Temp\ccZFmaSx.s 			page 5


 149:Generated_Source\PSoC4/CapSense_TunerHelper.c ****     *     available.
 150:Generated_Source\PSoC4/CapSense_TunerHelper.c ****     *   - CapSense_GetRadialCentroidPos() - calls only if the  radial slider is
 151:Generated_Source\PSoC4/CapSense_TunerHelper.c ****     *     available.
 152:Generated_Source\PSoC4/CapSense_TunerHelper.c ****     *   - CapSense_GetTouchCentroidPos() - calls only if the  touchpad slider
 153:Generated_Source\PSoC4/CapSense_TunerHelper.c ****     *     available.
 154:Generated_Source\PSoC4/CapSense_TunerHelper.c ****     *   - CapSense_CheckIsAnyWidgetActive();
 155:Generated_Source\PSoC4/CapSense_TunerHelper.c ****     *  The results of operations are copied to OUTBOX.
 156:Generated_Source\PSoC4/CapSense_TunerHelper.c ****     *
 157:Generated_Source\PSoC4/CapSense_TunerHelper.c ****     * Parameters:
 158:Generated_Source\PSoC4/CapSense_TunerHelper.c ****     *  None
 159:Generated_Source\PSoC4/CapSense_TunerHelper.c ****     *
 160:Generated_Source\PSoC4/CapSense_TunerHelper.c ****     * Return:
 161:Generated_Source\PSoC4/CapSense_TunerHelper.c ****     *  None
 162:Generated_Source\PSoC4/CapSense_TunerHelper.c ****     *
 163:Generated_Source\PSoC4/CapSense_TunerHelper.c ****     * Global Variables:
 164:Generated_Source\PSoC4/CapSense_TunerHelper.c ****     *  CapSense_OUTBOX outbox - the structure which is used as an output
 165:Generated_Source\PSoC4/CapSense_TunerHelper.c ****     *  buffer to report data to the Tuner GUI.
 166:Generated_Source\PSoC4/CapSense_TunerHelper.c ****     *  Update fields:
 167:Generated_Source\PSoC4/CapSense_TunerHelper.c ****     *    - position[];
 168:Generated_Source\PSoC4/CapSense_TunerHelper.c ****     *    - OnMask[];
 169:Generated_Source\PSoC4/CapSense_TunerHelper.c ****     *
 170:Generated_Source\PSoC4/CapSense_TunerHelper.c ****     * Global Variables:
 171:Generated_Source\PSoC4/CapSense_TunerHelper.c ****     *  None
 172:Generated_Source\PSoC4/CapSense_TunerHelper.c ****     *
 173:Generated_Source\PSoC4/CapSense_TunerHelper.c ****     *******************************************************************************/
 174:Generated_Source\PSoC4/CapSense_TunerHelper.c ****     void CapSense_ProcessAllWidgets(volatile CapSense_OUTBOX *outbox)
 175:Generated_Source\PSoC4/CapSense_TunerHelper.c ****     {
  81              		.loc 1 175 0
  82              		.cfi_startproc
  83              		@ args = 0, pretend = 0, frame = 0
  84              		@ frame_needed = 0, uses_anonymous_args = 0
  85              	.LVL6:
  86 0000 10B5     		push	{r4, lr}
  87              		.cfi_def_cfa_offset 8
  88              		.cfi_offset 4, -8
  89              		.cfi_offset 14, -4
  90 0002 0400     		movs	r4, r0
  91              	.LVL7:
 176:Generated_Source\PSoC4/CapSense_TunerHelper.c ****         uint8  i = 0u;
 177:Generated_Source\PSoC4/CapSense_TunerHelper.c **** 
 178:Generated_Source\PSoC4/CapSense_TunerHelper.c ****         #if (0u != CapSense_TOTAL_MATRIX_BUTTONS_COUNT)
 179:Generated_Source\PSoC4/CapSense_TunerHelper.c ****             uint8 mbPositionBuf[CapSense_MB_POSITION_BUFFER_SIZE];
 180:Generated_Source\PSoC4/CapSense_TunerHelper.c ****         #endif /* (0u != CapSense_TOTAL_MATRIX_BUTTONS_COUNT) */
 181:Generated_Source\PSoC4/CapSense_TunerHelper.c **** 
 182:Generated_Source\PSoC4/CapSense_TunerHelper.c ****         #if (0u != CapSense_TOTAL_TOUCH_PADS_BASIC_COUNT)
 183:Generated_Source\PSoC4/CapSense_TunerHelper.c ****             uint16 centroidPosBuf[CapSense_CENTROID_POSITION_BUFFER_SIZE];
 184:Generated_Source\PSoC4/CapSense_TunerHelper.c ****         #endif  /* (0u != CapSense_TOTAL_TOUCH_PADS_BASIC_COUNT) */
 185:Generated_Source\PSoC4/CapSense_TunerHelper.c **** 
 186:Generated_Source\PSoC4/CapSense_TunerHelper.c ****         #if(0u != CapSense_TOTAL_TRACKPAD_GESTURES_COUNT)
 187:Generated_Source\PSoC4/CapSense_TunerHelper.c ****             CapSense_POSITION_STRUCT trackpadPosBuf[CapSense_CENTROID_POSITION_BUFFER_SIZE];
 188:Generated_Source\PSoC4/CapSense_TunerHelper.c ****         #endif  /* (0u != CapSense_TOTAL_TRACKPAD_GESTURES_COUNT) */
 189:Generated_Source\PSoC4/CapSense_TunerHelper.c **** 
 190:Generated_Source\PSoC4/CapSense_TunerHelper.c ****         #if ( (0u != CapSense_TOTAL_RADIAL_SLIDERS_COUNT) || (0u != CapSense_TOTAL_TOUCH_PADS_COUNT
 191:Generated_Source\PSoC4/CapSense_TunerHelper.c ****               (0u != CapSense_TOTAL_MATRIX_BUTTONS_COUNT))
 192:Generated_Source\PSoC4/CapSense_TunerHelper.c ****             uint8 widgetCnt;
 193:Generated_Source\PSoC4/CapSense_TunerHelper.c ****         #endif  /* ((0u != CapSense_TOTAL_RADIAL_SLIDERS_COUNT) || (0u != CapSense_TOTAL_TOUCH_PADS
 194:Generated_Source\PSoC4/CapSense_TunerHelper.c ****                 *   (0u != CapSense_TOTAL_MATRIX_BUTTONS_COUNT)
ARM GAS  C:\Users\srhi\AppData\Local\Temp\ccZFmaSx.s 			page 6


 195:Generated_Source\PSoC4/CapSense_TunerHelper.c ****                 */
 196:Generated_Source\PSoC4/CapSense_TunerHelper.c **** 
 197:Generated_Source\PSoC4/CapSense_TunerHelper.c ****         /* Calculate widget with centroids */
 198:Generated_Source\PSoC4/CapSense_TunerHelper.c ****         #if (0u != CapSense_TOTAL_LINEAR_SLIDERS_COUNT)
 199:Generated_Source\PSoC4/CapSense_TunerHelper.c ****             for(; i < CapSense_TOTAL_LINEAR_SLIDERS_COUNT; i++)
 200:Generated_Source\PSoC4/CapSense_TunerHelper.c ****             {
 201:Generated_Source\PSoC4/CapSense_TunerHelper.c ****                 outbox->centroidPosition[i] = (uint16)CapSense_GetCentroidPos((uint32)i);
 202:Generated_Source\PSoC4/CapSense_TunerHelper.c ****             }
 203:Generated_Source\PSoC4/CapSense_TunerHelper.c ****         #endif /* (0u != CapSense_TOTAL_LINEAR_SLIDERS_COUNT) */
 204:Generated_Source\PSoC4/CapSense_TunerHelper.c **** 
 205:Generated_Source\PSoC4/CapSense_TunerHelper.c ****         #if (0u != CapSense_TOTAL_RADIAL_SLIDERS_COUNT)
 206:Generated_Source\PSoC4/CapSense_TunerHelper.c ****             widgetCnt = i;
 207:Generated_Source\PSoC4/CapSense_TunerHelper.c ****             for(; i < (widgetCnt + CapSense_TOTAL_RADIAL_SLIDERS_COUNT); i++)
 208:Generated_Source\PSoC4/CapSense_TunerHelper.c ****             {
 209:Generated_Source\PSoC4/CapSense_TunerHelper.c ****                 outbox->centroidPosition[i] = (uint16)CapSense_GetRadialCentroidPos((uint32)i);
 210:Generated_Source\PSoC4/CapSense_TunerHelper.c ****             }
 211:Generated_Source\PSoC4/CapSense_TunerHelper.c ****         #endif /* (0u != CapSense_TOTAL_RADIAL_SLIDERS_COUNT) */
 212:Generated_Source\PSoC4/CapSense_TunerHelper.c **** 
 213:Generated_Source\PSoC4/CapSense_TunerHelper.c ****         #if (0u != CapSense_TOTAL_TOUCH_PADS_BASIC_COUNT)
 214:Generated_Source\PSoC4/CapSense_TunerHelper.c ****             widgetCnt = i;
 215:Generated_Source\PSoC4/CapSense_TunerHelper.c ****             for(; i < (widgetCnt + (CapSense_TOTAL_TOUCH_PADS_BASIC_COUNT * 2u)); i=i+2u)
 216:Generated_Source\PSoC4/CapSense_TunerHelper.c ****             {
 217:Generated_Source\PSoC4/CapSense_TunerHelper.c ****                 if(CapSense_GetTouchCentroidPos((uint32)i, centroidPosBuf) == 0u)
 218:Generated_Source\PSoC4/CapSense_TunerHelper.c ****                 {
 219:Generated_Source\PSoC4/CapSense_TunerHelper.c ****                     outbox->centroidPosition[i + CapSense_FIRST_FINGER_X_INDEX] = CapSense_MAX_UINT
 220:Generated_Source\PSoC4/CapSense_TunerHelper.c ****                     outbox->centroidPosition[i + CapSense_FIRST_FINGER_Y_INDEX] = CapSense_MAX_UINT
 221:Generated_Source\PSoC4/CapSense_TunerHelper.c ****                 }
 222:Generated_Source\PSoC4/CapSense_TunerHelper.c ****                 else
 223:Generated_Source\PSoC4/CapSense_TunerHelper.c ****                 {
 224:Generated_Source\PSoC4/CapSense_TunerHelper.c ****                     outbox->centroidPosition[i + CapSense_FIRST_FINGER_X_INDEX] =
 225:Generated_Source\PSoC4/CapSense_TunerHelper.c ****                     (uint16) centroidPosBuf[CapSense_FIRST_FINGER_X_INDEX];
 226:Generated_Source\PSoC4/CapSense_TunerHelper.c **** 
 227:Generated_Source\PSoC4/CapSense_TunerHelper.c ****                     outbox->centroidPosition[i + CapSense_FIRST_FINGER_Y_INDEX] =
 228:Generated_Source\PSoC4/CapSense_TunerHelper.c ****                     (uint16) centroidPosBuf[CapSense_FIRST_FINGER_Y_INDEX];
 229:Generated_Source\PSoC4/CapSense_TunerHelper.c ****                 }
 230:Generated_Source\PSoC4/CapSense_TunerHelper.c ****             }
 231:Generated_Source\PSoC4/CapSense_TunerHelper.c ****         #endif /* (0u != CapSense_TOTAL_TOUCH_PADS_BASIC_COUNT) */
 232:Generated_Source\PSoC4/CapSense_TunerHelper.c **** 
 233:Generated_Source\PSoC4/CapSense_TunerHelper.c ****         #if (0u != CapSense_TOTAL_TRACKPAD_GESTURES_COUNT)
 234:Generated_Source\PSoC4/CapSense_TunerHelper.c ****             widgetCnt = i;
 235:Generated_Source\PSoC4/CapSense_TunerHelper.c ****             for(; i < (widgetCnt + (CapSense_TOTAL_TRACKPAD_GESTURES_COUNT * 4u)); i=i+4u)
 236:Generated_Source\PSoC4/CapSense_TunerHelper.c ****             {
 237:Generated_Source\PSoC4/CapSense_TunerHelper.c ****                 outbox->fingersNum[CapSense_DEFAULT_TRACKPAD_INDEX] =
 238:Generated_Source\PSoC4/CapSense_TunerHelper.c ****                 (uint8)CapSense_GetDoubleTouchCentroidPos(trackpadPosBuf);
 239:Generated_Source\PSoC4/CapSense_TunerHelper.c **** 
 240:Generated_Source\PSoC4/CapSense_TunerHelper.c ****                 outbox->gestureID[CapSense_DEFAULT_TRACKPAD_INDEX] =
 241:Generated_Source\PSoC4/CapSense_TunerHelper.c ****                 (uint8)CapSense_DecodeAllGestures((uint32)outbox->fingersNum[CapSense_DEFAULT_TRACK
 242:Generated_Source\PSoC4/CapSense_TunerHelper.c **** 
 243:Generated_Source\PSoC4/CapSense_TunerHelper.c ****                 #if((0u != CapSense_ST_SCROLL_GEST_ENABLED) || (0u != CapSense_DT_SCROLL_GEST_ENABL
 244:Generated_Source\PSoC4/CapSense_TunerHelper.c ****                     /*
 245:Generated_Source\PSoC4/CapSense_TunerHelper.c ****                     Report Scroll count only for scroll and Inertial Scroll gestures.
 246:Generated_Source\PSoC4/CapSense_TunerHelper.c ****                     For all other gestures report scroll count as zero to tuner.
 247:Generated_Source\PSoC4/CapSense_TunerHelper.c ****                      */
 248:Generated_Source\PSoC4/CapSense_TunerHelper.c ****                     if (((outbox->gestureID[CapSense_DEFAULT_TRACKPAD_INDEX] & CapSense_GESTURE_TYP
 249:Generated_Source\PSoC4/CapSense_TunerHelper.c ****                         ((outbox->gestureID[CapSense_DEFAULT_TRACKPAD_INDEX] & CapSense_GESTURE_TYP
 250:Generated_Source\PSoC4/CapSense_TunerHelper.c ****                     {
 251:Generated_Source\PSoC4/CapSense_TunerHelper.c ****                         outbox->scrollCnt = CapSense_GetScrollCnt();
ARM GAS  C:\Users\srhi\AppData\Local\Temp\ccZFmaSx.s 			page 7


 252:Generated_Source\PSoC4/CapSense_TunerHelper.c ****                     }
 253:Generated_Source\PSoC4/CapSense_TunerHelper.c ****                     else
 254:Generated_Source\PSoC4/CapSense_TunerHelper.c ****                     {
 255:Generated_Source\PSoC4/CapSense_TunerHelper.c ****                         outbox->scrollCnt = 0u;
 256:Generated_Source\PSoC4/CapSense_TunerHelper.c ****                     }
 257:Generated_Source\PSoC4/CapSense_TunerHelper.c ****                 #endif /* ((0u != CapSense_ST_SCROLL_GEST_ENABLED) || (0u != CapSense_DT_SCROLL_GES
 258:Generated_Source\PSoC4/CapSense_TunerHelper.c **** 
 259:Generated_Source\PSoC4/CapSense_TunerHelper.c ****                 outbox->centroidPosition[i + CapSense_FIRST_FINGER_X_INDEX] = CapSense_MAX_UINT_16;
 260:Generated_Source\PSoC4/CapSense_TunerHelper.c ****                 outbox->centroidPosition[i + CapSense_FIRST_FINGER_Y_INDEX] = CapSense_MAX_UINT_16;
 261:Generated_Source\PSoC4/CapSense_TunerHelper.c ****                 outbox->centroidPosition[i + CapSense_SECOND_FINGER_X_INDEX] = CapSense_MAX_UINT_16
 262:Generated_Source\PSoC4/CapSense_TunerHelper.c ****                 outbox->centroidPosition[i + CapSense_SECOND_FINGER_Y_INDEX] = CapSense_MAX_UINT_16
 263:Generated_Source\PSoC4/CapSense_TunerHelper.c **** 
 264:Generated_Source\PSoC4/CapSense_TunerHelper.c ****                 if(0u != outbox->fingersNum[CapSense_DEFAULT_TRACKPAD_INDEX])
 265:Generated_Source\PSoC4/CapSense_TunerHelper.c ****                 {
 266:Generated_Source\PSoC4/CapSense_TunerHelper.c ****                     outbox->centroidPosition[i + CapSense_FIRST_FINGER_X_INDEX] =
 267:Generated_Source\PSoC4/CapSense_TunerHelper.c ****                     (uint16) trackpadPosBuf[CapSense_FIRST_FINGER_INDEX].x;
 268:Generated_Source\PSoC4/CapSense_TunerHelper.c **** 
 269:Generated_Source\PSoC4/CapSense_TunerHelper.c ****                     outbox->centroidPosition[i + CapSense_FIRST_FINGER_Y_INDEX] =
 270:Generated_Source\PSoC4/CapSense_TunerHelper.c ****                     (uint16) trackpadPosBuf[CapSense_FIRST_FINGER_INDEX].y;
 271:Generated_Source\PSoC4/CapSense_TunerHelper.c **** 
 272:Generated_Source\PSoC4/CapSense_TunerHelper.c ****                     if(outbox->fingersNum[CapSense_DEFAULT_TRACKPAD_INDEX] > 1u)
 273:Generated_Source\PSoC4/CapSense_TunerHelper.c ****                     {
 274:Generated_Source\PSoC4/CapSense_TunerHelper.c ****                         outbox->centroidPosition[i + CapSense_SECOND_FINGER_X_INDEX] =
 275:Generated_Source\PSoC4/CapSense_TunerHelper.c ****                         (uint16) trackpadPosBuf[CapSense_SECOND_FINGER_INDEX].x;
 276:Generated_Source\PSoC4/CapSense_TunerHelper.c **** 
 277:Generated_Source\PSoC4/CapSense_TunerHelper.c ****                         outbox->centroidPosition[i + CapSense_SECOND_FINGER_Y_INDEX] =
 278:Generated_Source\PSoC4/CapSense_TunerHelper.c ****                         (uint16) trackpadPosBuf[CapSense_SECOND_FINGER_INDEX].y;
 279:Generated_Source\PSoC4/CapSense_TunerHelper.c ****                     }
 280:Generated_Source\PSoC4/CapSense_TunerHelper.c ****                 }
 281:Generated_Source\PSoC4/CapSense_TunerHelper.c ****             }
 282:Generated_Source\PSoC4/CapSense_TunerHelper.c ****         #endif /* (0u != CapSense_TOTAL_TRACKPAD_GESTURES_COUNT) */
 283:Generated_Source\PSoC4/CapSense_TunerHelper.c **** 
 284:Generated_Source\PSoC4/CapSense_TunerHelper.c ****         #if (0u != CapSense_TOTAL_MATRIX_BUTTONS_COUNT)
 285:Generated_Source\PSoC4/CapSense_TunerHelper.c ****             i += CapSense_TOTAL_BUTTONS_COUNT;
 286:Generated_Source\PSoC4/CapSense_TunerHelper.c ****             widgetCnt = 0u;
 287:Generated_Source\PSoC4/CapSense_TunerHelper.c ****             for(; widgetCnt < (CapSense_TOTAL_MATRIX_BUTTONS_COUNT * 2u); widgetCnt += 2u)
 288:Generated_Source\PSoC4/CapSense_TunerHelper.c ****             {
 289:Generated_Source\PSoC4/CapSense_TunerHelper.c ****                 if(CapSense_GetMatrixButtonPos((uint32)i, mbPositionBuf) == 0u)
 290:Generated_Source\PSoC4/CapSense_TunerHelper.c ****                 {
 291:Generated_Source\PSoC4/CapSense_TunerHelper.c ****                     outbox->mbPosition[widgetCnt] = CapSense_MAX_UINT_8;
 292:Generated_Source\PSoC4/CapSense_TunerHelper.c ****                     outbox->mbPosition[widgetCnt+1u] = CapSense_MAX_UINT_8;
 293:Generated_Source\PSoC4/CapSense_TunerHelper.c ****                 }
 294:Generated_Source\PSoC4/CapSense_TunerHelper.c ****                 else
 295:Generated_Source\PSoC4/CapSense_TunerHelper.c ****                 {
 296:Generated_Source\PSoC4/CapSense_TunerHelper.c ****                     outbox->mbPosition[widgetCnt] = mbPositionBuf[0u];
 297:Generated_Source\PSoC4/CapSense_TunerHelper.c ****                     outbox->mbPosition[widgetCnt+1u] = mbPositionBuf[1u];
 298:Generated_Source\PSoC4/CapSense_TunerHelper.c ****                 }
 299:Generated_Source\PSoC4/CapSense_TunerHelper.c ****                 i += 2u;
 300:Generated_Source\PSoC4/CapSense_TunerHelper.c ****             }
 301:Generated_Source\PSoC4/CapSense_TunerHelper.c ****         #endif /* (0u != CapSense_TOTAL_MATRIX_BUTTONS_COUNT) */
 302:Generated_Source\PSoC4/CapSense_TunerHelper.c **** 
 303:Generated_Source\PSoC4/CapSense_TunerHelper.c ****         #if(0u != CapSense_CSHL_API_GENERATE)
 304:Generated_Source\PSoC4/CapSense_TunerHelper.c ****             /* Update On/Off State */
 305:Generated_Source\PSoC4/CapSense_TunerHelper.c ****             (void)CapSense_CheckIsAnyWidgetActive();
  92              		.loc 1 305 0
  93 0004 FFF7FEFF 		bl	CapSense_CheckIsAnyWidgetActive
  94              	.LVL8:
ARM GAS  C:\Users\srhi\AppData\Local\Temp\ccZFmaSx.s 			page 8


 306:Generated_Source\PSoC4/CapSense_TunerHelper.c **** 
 307:Generated_Source\PSoC4/CapSense_TunerHelper.c ****             /* Copy OnMask */
 308:Generated_Source\PSoC4/CapSense_TunerHelper.c ****             for(i=0u; i < CapSense_TOTAL_SENSOR_MASK_COUNT; i++)
  95              		.loc 1 308 0
  96 0008 0023     		movs	r3, #0
  97 000a 04E0     		b	.L5
  98              	.LVL9:
  99              	.L6:
 309:Generated_Source\PSoC4/CapSense_TunerHelper.c ****             {
 310:Generated_Source\PSoC4/CapSense_TunerHelper.c ****                 outbox->onMask[i]  = CapSense_sensorOnMask[i];
 100              		.loc 1 310 0 discriminator 3
 101 000c 034A     		ldr	r2, .L7
 102 000e D25C     		ldrb	r2, [r2, r3]
 103 0010 E254     		strb	r2, [r4, r3]
 308:Generated_Source\PSoC4/CapSense_TunerHelper.c ****             {
 104              		.loc 1 308 0 discriminator 3
 105 0012 0133     		adds	r3, r3, #1
 106              	.LVL10:
 107 0014 DBB2     		uxtb	r3, r3
 108              	.LVL11:
 109              	.L5:
 308:Generated_Source\PSoC4/CapSense_TunerHelper.c ****             {
 110              		.loc 1 308 0 is_stmt 0 discriminator 1
 111 0016 002B     		cmp	r3, #0
 112 0018 F8D0     		beq	.L6
 311:Generated_Source\PSoC4/CapSense_TunerHelper.c ****             }
 312:Generated_Source\PSoC4/CapSense_TunerHelper.c ****         #endif /* (0u != CapSense_CSHL_API_GENERATE) */
 313:Generated_Source\PSoC4/CapSense_TunerHelper.c **** 
 314:Generated_Source\PSoC4/CapSense_TunerHelper.c ****         /* `#START CapSense_ProcessAllWidgets_Debug` */
 315:Generated_Source\PSoC4/CapSense_TunerHelper.c **** 
 316:Generated_Source\PSoC4/CapSense_TunerHelper.c ****         /* `#END` */
 317:Generated_Source\PSoC4/CapSense_TunerHelper.c **** 
 318:Generated_Source\PSoC4/CapSense_TunerHelper.c ****         #ifdef CapSense_PROCESS_ALL_WIDGETS_CALLBACK
 319:Generated_Source\PSoC4/CapSense_TunerHelper.c ****             CapSense_ProcessAllWidgets_Callback();
 320:Generated_Source\PSoC4/CapSense_TunerHelper.c ****         #endif /* CapSense_PROCESS_ALL_WIDGETS_CALLBACK */
 321:Generated_Source\PSoC4/CapSense_TunerHelper.c ****     }
 113              		.loc 1 321 0 is_stmt 1
 114              		@ sp needed
 115              	.LVL12:
 116 001a 10BD     		pop	{r4, pc}
 117              	.L8:
 118              		.align	2
 119              	.L7:
 120 001c 00000000 		.word	CapSense_sensorOnMask
 121              		.cfi_endproc
 122              	.LFE34:
 123              		.size	CapSense_ProcessAllWidgets, .-CapSense_ProcessAllWidgets
 124              		.section	.text.CapSense_TunerComm,"ax",%progbits
 125              		.align	2
 126              		.global	CapSense_TunerComm
 127              		.code	16
 128              		.thumb_func
 129              		.type	CapSense_TunerComm, %function
 130              	CapSense_TunerComm:
 131              	.LFB33:
 102:Generated_Source\PSoC4/CapSense_TunerHelper.c ****     #if (0u != CapSense_TUNER_API_GENERATE)
 132              		.loc 1 102 0
ARM GAS  C:\Users\srhi\AppData\Local\Temp\ccZFmaSx.s 			page 9


 133              		.cfi_startproc
 134              		@ args = 0, pretend = 0, frame = 0
 135              		@ frame_needed = 0, uses_anonymous_args = 0
 136 0000 10B5     		push	{r4, lr}
 137              		.cfi_def_cfa_offset 8
 138              		.cfi_offset 4, -8
 139              		.cfi_offset 14, -4
 104:Generated_Source\PSoC4/CapSense_TunerHelper.c ****         {
 140              		.loc 1 104 0
 141 0002 FFF7FEFF 		bl	CapSense_IsBusy
 142              	.LVL13:
 143 0006 0028     		cmp	r0, #0
 144 0008 18D1     		bne	.L9
 119:Generated_Source\PSoC4/CapSense_TunerHelper.c ****                 CapSense_ProcessAllWidgets(&CapSense_mailboxesComm.csdMailbox.outbox);
 145              		.loc 1 119 0
 146 000a FFF7FEFF 		bl	CapSense_UpdateEnabledBaselines
 147              	.LVL14:
 120:Generated_Source\PSoC4/CapSense_TunerHelper.c ****             #endif /* (0u != CapSense_CSHL_API_GENERATE) */
 148              		.loc 1 120 0
 149 000e 0C4C     		ldr	r4, .L13
 150 0010 2000     		movs	r0, r4
 151 0012 FFF7FEFF 		bl	CapSense_ProcessAllWidgets
 152              	.LVL15:
 123:Generated_Source\PSoC4/CapSense_TunerHelper.c **** 
 153              		.loc 1 123 0
 154 0016 E01E     		subs	r0, r4, #3
 155 0018 FFF7FEFF 		bl	CapSense_PostMessage
 156              	.LVL16:
 126:Generated_Source\PSoC4/CapSense_TunerHelper.c **** 
 157              		.loc 1 126 0
 158 001c 0B20     		movs	r0, #11
 159 001e FFF7FEFF 		bl	CyIntEnable
 160              	.LVL17:
 161              	.L11:
 128:Generated_Source\PSoC4/CapSense_TunerHelper.c ****                   (0u != (EZI2C_EzI2CGetActivity() & EZI2C_EZI2C_STATUS_BUSY))){}
 162              		.loc 1 128 0 discriminator 3
 163 0022 084B     		ldr	r3, .L13+4
 164 0024 5B78     		ldrb	r3, [r3, #1]
 165 0026 042B     		cmp	r3, #4
 166 0028 FBD1     		bne	.L11
 129:Generated_Source\PSoC4/CapSense_TunerHelper.c **** 
 167              		.loc 1 129 0 discriminator 2
 168 002a FFF7FEFF 		bl	EZI2C_EzI2CGetActivity
 169              	.LVL18:
 128:Generated_Source\PSoC4/CapSense_TunerHelper.c ****                   (0u != (EZI2C_EzI2CGetActivity() & EZI2C_EZI2C_STATUS_BUSY))){}
 170              		.loc 1 128 0 discriminator 2
 171 002e 8306     		lsls	r3, r0, #26
 172 0030 F7D4     		bmi	.L11
 132:Generated_Source\PSoC4/CapSense_TunerHelper.c **** 
 173              		.loc 1 132 0
 174 0032 0B20     		movs	r0, #11
 175 0034 FFF7FEFF 		bl	CyIntDisable
 176              	.LVL19:
 135:Generated_Source\PSoC4/CapSense_TunerHelper.c ****         }
 177              		.loc 1 135 0
 178 0038 FFF7FEFF 		bl	CapSense_ScanEnabledWidgets
 179              	.LVL20:
ARM GAS  C:\Users\srhi\AppData\Local\Temp\ccZFmaSx.s 			page 10


 180              	.L9:
 138:Generated_Source\PSoC4/CapSense_TunerHelper.c **** 
 181              		.loc 1 138 0
 182              		@ sp needed
 183 003c 10BD     		pop	{r4, pc}
 184              	.L14:
 185 003e C046     		.align	2
 186              	.L13:
 187 0040 04000000 		.word	CapSense_mailboxesComm+4
 188 0044 00000000 		.word	CapSense_mailboxesComm
 189              		.cfi_endproc
 190              	.LFE33:
 191              		.size	CapSense_TunerComm, .-CapSense_TunerComm
 192              		.comm	CapSense_mailboxesComm,20,4
 193              		.text
 194              	.Letext0:
 195              		.file 2 "Generated_Source\\PSoC4\\cytypes.h"
 196              		.file 3 "Generated_Source\\PSoC4\\CapSense_MBX.h"
 197              		.file 4 "Generated_Source\\PSoC4\\CapSense_CSHL.h"
 198              		.file 5 "Generated_Source\\PSoC4\\CapSense.h"
 199              		.file 6 "Generated_Source\\PSoC4\\EZI2C.h"
 200              		.file 7 "Generated_Source\\PSoC4\\EZI2C_EZI2C.h"
 201              		.file 8 "Generated_Source\\PSoC4\\CyLib.h"