ARM GAS  C:\Users\srhi\AppData\Local\Temp\ccKNHqqh.s 			page 1


   1              		.syntax unified
   2              		.cpu cortex-m0
   3              		.fpu softvfp
   4              		.eabi_attribute 20, 1
   5              		.eabi_attribute 21, 1
   6              		.eabi_attribute 23, 3
   7              		.eabi_attribute 24, 1
   8              		.eabi_attribute 25, 1
   9              		.eabi_attribute 26, 1
  10              		.eabi_attribute 30, 1
  11              		.eabi_attribute 34, 0
  12              		.eabi_attribute 18, 4
  13              		.thumb
  14              		.syntax unified
  15              		.file	"CapSense_MBX.c"
  16              		.text
  17              	.Ltext0:
  18              		.cfi_sections	.debug_frame
  19              		.section	.text.CapSense_InitMailbox,"ax",%progbits
  20              		.align	2
  21              		.global	CapSense_InitMailbox
  22              		.code	16
  23              		.thumb_func
  24              		.type	CapSense_InitMailbox, %function
  25              	CapSense_InitMailbox:
  26              	.LFB32:
  27              		.file 1 "Generated_Source\\PSoC4\\CapSense_MBX.c"
   1:Generated_Source\PSoC4/CapSense_MBX.c **** /*******************************************************************************
   2:Generated_Source\PSoC4/CapSense_MBX.c **** * File Name: CapSense_MBX.c
   3:Generated_Source\PSoC4/CapSense_MBX.c **** * Version 2.60
   4:Generated_Source\PSoC4/CapSense_MBX.c **** *
   5:Generated_Source\PSoC4/CapSense_MBX.c **** * Description:
   6:Generated_Source\PSoC4/CapSense_MBX.c **** *  This file provides the source code of Tuner communication APIs for the
   7:Generated_Source\PSoC4/CapSense_MBX.c **** *  CapSense CSD component.
   8:Generated_Source\PSoC4/CapSense_MBX.c **** *
   9:Generated_Source\PSoC4/CapSense_MBX.c **** * Note:
  10:Generated_Source\PSoC4/CapSense_MBX.c **** *
  11:Generated_Source\PSoC4/CapSense_MBX.c **** ********************************************************************************
  12:Generated_Source\PSoC4/CapSense_MBX.c **** * Copyright 2013-2016, Cypress Semiconductor Corporation.  All rights reserved.
  13:Generated_Source\PSoC4/CapSense_MBX.c **** * You may use this file only in accordance with the license, terms, conditions,
  14:Generated_Source\PSoC4/CapSense_MBX.c **** * disclaimers, and limitations in the end user license agreement accompanying
  15:Generated_Source\PSoC4/CapSense_MBX.c **** * the software package with which this file was provided.
  16:Generated_Source\PSoC4/CapSense_MBX.c **** *******************************************************************************/
  17:Generated_Source\PSoC4/CapSense_MBX.c **** 
  18:Generated_Source\PSoC4/CapSense_MBX.c **** #include "CapSense_MBX.h"
  19:Generated_Source\PSoC4/CapSense_MBX.c **** #include "cyapicallbacks.h"
  20:Generated_Source\PSoC4/CapSense_MBX.c **** 
  21:Generated_Source\PSoC4/CapSense_MBX.c **** /*******************************************************************************
  22:Generated_Source\PSoC4/CapSense_MBX.c **** *  Place your includes, defines and code here
  23:Generated_Source\PSoC4/CapSense_MBX.c **** ********************************************************************************/
  24:Generated_Source\PSoC4/CapSense_MBX.c **** /* `#START CapSense_MBX` */
  25:Generated_Source\PSoC4/CapSense_MBX.c **** 
  26:Generated_Source\PSoC4/CapSense_MBX.c **** /* `#END` */
  27:Generated_Source\PSoC4/CapSense_MBX.c **** 
  28:Generated_Source\PSoC4/CapSense_MBX.c **** #if (CapSense_TUNING_METHOD == CapSense__TUNING_MANUAL)
  29:Generated_Source\PSoC4/CapSense_MBX.c ****     /*******************************************************************************
  30:Generated_Source\PSoC4/CapSense_MBX.c ****     * Function Name: CapSense_InitCsdParams
ARM GAS  C:\Users\srhi\AppData\Local\Temp\ccKNHqqh.s 			page 2


  31:Generated_Source\PSoC4/CapSense_MBX.c ****     ********************************************************************************
  32:Generated_Source\PSoC4/CapSense_MBX.c ****     *
  33:Generated_Source\PSoC4/CapSense_MBX.c ****     * Summary:
  34:Generated_Source\PSoC4/CapSense_MBX.c ****     *  Configures the CSD parameters to match the parameters in the inbox.
  35:Generated_Source\PSoC4/CapSense_MBX.c ****     *  Used only in the manual tuning mode to apply new scanning parameters from the Tuner
  36:Generated_Source\PSoC4/CapSense_MBX.c ****     *  GUI.
  37:Generated_Source\PSoC4/CapSense_MBX.c ****     *
  38:Generated_Source\PSoC4/CapSense_MBX.c ****     * Parameters:
  39:Generated_Source\PSoC4/CapSense_MBX.c ****     *  inbox:  Pointer to Inbox structure in RAM.
  40:Generated_Source\PSoC4/CapSense_MBX.c ****     *
  41:Generated_Source\PSoC4/CapSense_MBX.c ****     * Return:
  42:Generated_Source\PSoC4/CapSense_MBX.c ****     *  None. Contents of the structure are not modified.
  43:Generated_Source\PSoC4/CapSense_MBX.c ****     *
  44:Generated_Source\PSoC4/CapSense_MBX.c ****     * Global Variables:
  45:Generated_Source\PSoC4/CapSense_MBX.c ****     *  CapSense_modulationIDAC[]      - stores modulation IDAC values.
  46:Generated_Source\PSoC4/CapSense_MBX.c ****     *  CapSense_compensationIDAC[]    - stores compensation IDAC values.
  47:Generated_Source\PSoC4/CapSense_MBX.c ****     *  CapSense_widgetResolution[]    - used to store the scan resolution values for each widget.
  48:Generated_Source\PSoC4/CapSense_MBX.c ****     *  CapSense_senseClkDividerVal[]  - used to store the sense clock divider values for each widge
  49:Generated_Source\PSoC4/CapSense_MBX.c ****     *  CapSense_sampleClkDividerVal[] - used to store the sample clock divider values for each widg
  50:Generated_Source\PSoC4/CapSense_MBX.c ****     *  CapSense_fingerThreshold[]     - used to store the finger threshold values for each widget.
  51:Generated_Source\PSoC4/CapSense_MBX.c ****     *  CapSense_noiseThreshold[]      - used to store the noise threshold values for each widget.
  52:Generated_Source\PSoC4/CapSense_MBX.c ****     *  CapSense_hysteresis[]          - used to store the hysteresis values for each widget.
  53:Generated_Source\PSoC4/CapSense_MBX.c ****     *  CapSense_debounce[]            - used to store the debounce values for each widget.
  54:Generated_Source\PSoC4/CapSense_MBX.c ****     *
  55:Generated_Source\PSoC4/CapSense_MBX.c ****     *******************************************************************************/
  56:Generated_Source\PSoC4/CapSense_MBX.c ****     static void CapSense_InitCsdParams(volatile const CapSense_INBOX *inbox);
  57:Generated_Source\PSoC4/CapSense_MBX.c ****     static void CapSense_InitCsdParams(volatile const CapSense_INBOX *inbox)
  58:Generated_Source\PSoC4/CapSense_MBX.c ****     {
  59:Generated_Source\PSoC4/CapSense_MBX.c ****         /* Define widget sensor belongs to */
  60:Generated_Source\PSoC4/CapSense_MBX.c ****         uint8 sensor = inbox->sensorIndex;
  61:Generated_Source\PSoC4/CapSense_MBX.c ****         uint8 widget = CapSense_widgetNumber[sensor];
  62:Generated_Source\PSoC4/CapSense_MBX.c **** 
  63:Generated_Source\PSoC4/CapSense_MBX.c ****         /* Scanning parameters */
  64:Generated_Source\PSoC4/CapSense_MBX.c ****         #if(0u == CapSense_AUTOCALIBRATION_ENABLE)
  65:Generated_Source\PSoC4/CapSense_MBX.c ****             CapSense_modulationIDAC[sensor] = inbox->CapSense_inboxCsdCfg.modulatorIDAC;
  66:Generated_Source\PSoC4/CapSense_MBX.c **** 
  67:Generated_Source\PSoC4/CapSense_MBX.c ****             #if (CapSense_IDAC_CNT == 2u)
  68:Generated_Source\PSoC4/CapSense_MBX.c ****                 CapSense_compensationIDAC[sensor] = inbox->CapSense_inboxCsdCfg.compensationIDAC;
  69:Generated_Source\PSoC4/CapSense_MBX.c ****             #endif /* ( CapSense_IDAC_CNT == 2u ) */
  70:Generated_Source\PSoC4/CapSense_MBX.c ****         #endif /* (0u != CapSense_AUTOCALIBRATION_ENABLE) */
  71:Generated_Source\PSoC4/CapSense_MBX.c **** 
  72:Generated_Source\PSoC4/CapSense_MBX.c ****         CapSense_SetIDACRange((uint32)inbox->CapSense_inboxCsdCfg.idacRange);
  73:Generated_Source\PSoC4/CapSense_MBX.c **** 
  74:Generated_Source\PSoC4/CapSense_MBX.c ****         CapSense_widgetResolution[widget] =
  75:Generated_Source\PSoC4/CapSense_MBX.c ****         (uint32)(~(CapSense_RESOLUTION_16_BITS << inbox->CapSense_inboxCsdCfg.scanResolution));
  76:Generated_Source\PSoC4/CapSense_MBX.c **** 
  77:Generated_Source\PSoC4/CapSense_MBX.c ****         CapSense_widgetResolution[widget] &= CapSense_RESOLUTION_16_BITS;
  78:Generated_Source\PSoC4/CapSense_MBX.c **** 
  79:Generated_Source\PSoC4/CapSense_MBX.c ****         #if (0u != CapSense_MULTIPLE_FREQUENCY_SET )
  80:Generated_Source\PSoC4/CapSense_MBX.c ****             CapSense_senseClkDividerVal[sensor] = inbox->CapSense_inboxCsdCfg.analogSwitchDivider;
  81:Generated_Source\PSoC4/CapSense_MBX.c ****             CapSense_sampleClkDividerVal[sensor] = inbox->CapSense_inboxCsdCfg.modulatorDivider;
  82:Generated_Source\PSoC4/CapSense_MBX.c ****         #else
  83:Generated_Source\PSoC4/CapSense_MBX.c ****             CapSense_senseClkDividerVal = inbox->CapSense_inboxCsdCfg.analogSwitchDivider;
  84:Generated_Source\PSoC4/CapSense_MBX.c ****             CapSense_sampleClkDividerVal = inbox->CapSense_inboxCsdCfg.modulatorDivider;
  85:Generated_Source\PSoC4/CapSense_MBX.c ****         #endif /* (0u != CapSense_MULTIPLE_FREQUENCY_SET ) */
  86:Generated_Source\PSoC4/CapSense_MBX.c **** 
  87:Generated_Source\PSoC4/CapSense_MBX.c ****         #if(0u != CapSense_CSHL_API_GENERATE)
ARM GAS  C:\Users\srhi\AppData\Local\Temp\ccKNHqqh.s 			page 3


  88:Generated_Source\PSoC4/CapSense_MBX.c ****             #if (0u != CapSense_TOTAL_GENERICS_COUNT)
  89:Generated_Source\PSoC4/CapSense_MBX.c ****                 /* Exclude generic widget */
  90:Generated_Source\PSoC4/CapSense_MBX.c ****                 if(widget < CapSense_END_OF_WIDGETS_INDEX)
  91:Generated_Source\PSoC4/CapSense_MBX.c ****                 {
  92:Generated_Source\PSoC4/CapSense_MBX.c ****             #endif  /* 0u != CapSense_TOTAL_GENERICS_COUNT */
  93:Generated_Source\PSoC4/CapSense_MBX.c **** 
  94:Generated_Source\PSoC4/CapSense_MBX.c ****                 /* High level parameters */
  95:Generated_Source\PSoC4/CapSense_MBX.c ****                 CapSense_fingerThreshold[widget] = inbox->CapSense_inboxCsdCfg.fingerThreshold;
  96:Generated_Source\PSoC4/CapSense_MBX.c ****                 CapSense_noiseThreshold[widget]  = inbox->CapSense_inboxCsdCfg.noiseThreshold;
  97:Generated_Source\PSoC4/CapSense_MBX.c **** 
  98:Generated_Source\PSoC4/CapSense_MBX.c ****                 CapSense_hysteresis[widget] = inbox->CapSense_inboxCsdCfg.hysteresis;
  99:Generated_Source\PSoC4/CapSense_MBX.c ****                 CapSense_debounce[widget]   = inbox->CapSense_inboxCsdCfg.debounce;
 100:Generated_Source\PSoC4/CapSense_MBX.c **** 
 101:Generated_Source\PSoC4/CapSense_MBX.c ****                 #if(CapSense_TOTAL_TRACKPAD_GESTURES_COUNT > 0u)
 102:Generated_Source\PSoC4/CapSense_MBX.c ****                     CapSense_centroidMult[widget] = (uint16)((inbox->CapSense_inboxCsdCfg.apiResolu
 103:Generated_Source\PSoC4/CapSense_MBX.c ****                                                             (uint32)CapSense_RES_MULT) / (uint32)Ca
 104:Generated_Source\PSoC4/CapSense_MBX.c **** 
 105:Generated_Source\PSoC4/CapSense_MBX.c ****                 #endif /* (CapSense_TOTAL_TRACKPAD_GESTURES_COUNT > 0u) */
 106:Generated_Source\PSoC4/CapSense_MBX.c **** 
 107:Generated_Source\PSoC4/CapSense_MBX.c ****             #if (0u != CapSense_TOTAL_GENERICS_COUNT)
 108:Generated_Source\PSoC4/CapSense_MBX.c ****                 /* Exclude generic widget */
 109:Generated_Source\PSoC4/CapSense_MBX.c ****                 }
 110:Generated_Source\PSoC4/CapSense_MBX.c ****             #endif  /* 0u != CapSense_TOTAL_GENERICS_COUNT */
 111:Generated_Source\PSoC4/CapSense_MBX.c **** 
 112:Generated_Source\PSoC4/CapSense_MBX.c ****             /* Re-Init baseline */
 113:Generated_Source\PSoC4/CapSense_MBX.c ****             CapSense_InitializeAllBaselines();
 114:Generated_Source\PSoC4/CapSense_MBX.c ****         #endif /* (0u != CapSense_CSHL_API_GENERATE) */
 115:Generated_Source\PSoC4/CapSense_MBX.c ****     }
 116:Generated_Source\PSoC4/CapSense_MBX.c **** #endif  /* (CapSense_TUNING_METHOD == CapSense__TUNING_MANUAL) */
 117:Generated_Source\PSoC4/CapSense_MBX.c **** 
 118:Generated_Source\PSoC4/CapSense_MBX.c **** 
 119:Generated_Source\PSoC4/CapSense_MBX.c ****     /*******************************************************************************
 120:Generated_Source\PSoC4/CapSense_MBX.c ****     * Function Name: CapSense_InitGesturesParams
 121:Generated_Source\PSoC4/CapSense_MBX.c ****     ********************************************************************************
 122:Generated_Source\PSoC4/CapSense_MBX.c ****     *
 123:Generated_Source\PSoC4/CapSense_MBX.c ****     * Summary:
 124:Generated_Source\PSoC4/CapSense_MBX.c ****     *  Configures the parameters of gestures to match the parameters in the inbox.
 125:Generated_Source\PSoC4/CapSense_MBX.c ****     *  Used only in the manual and auto tuning mode or if the gestures support is enabled.
 126:Generated_Source\PSoC4/CapSense_MBX.c ****     *  Intended apply new scanning parameters from the Tuner GUI.
 127:Generated_Source\PSoC4/CapSense_MBX.c ****     *
 128:Generated_Source\PSoC4/CapSense_MBX.c ****     * Parameters:
 129:Generated_Source\PSoC4/CapSense_MBX.c ****     *  inbox:  Pointer to Inbox structure in RAM.
 130:Generated_Source\PSoC4/CapSense_MBX.c ****     *
 131:Generated_Source\PSoC4/CapSense_MBX.c ****     * Return:
 132:Generated_Source\PSoC4/CapSense_MBX.c ****     *  None. Contents of the structure are not modified.
 133:Generated_Source\PSoC4/CapSense_MBX.c ****     *
 134:Generated_Source\PSoC4/CapSense_MBX.c ****     *******************************************************************************/
 135:Generated_Source\PSoC4/CapSense_MBX.c **** #if((CapSense_TUNING_METHOD != CapSense__TUNING_NONE) && (0u != CapSense_TOTAL_TRACKPAD_GESTURES_CO
 136:Generated_Source\PSoC4/CapSense_MBX.c ****     static void CapSense_InitGesturesParams(volatile const CapSense_INBOX *inbox);
 137:Generated_Source\PSoC4/CapSense_MBX.c ****     static void CapSense_InitGesturesParams(volatile const CapSense_INBOX *inbox)
 138:Generated_Source\PSoC4/CapSense_MBX.c ****     {
 139:Generated_Source\PSoC4/CapSense_MBX.c ****         #if(0u != CapSense_IS_ANY_GESTURES_EN)
 140:Generated_Source\PSoC4/CapSense_MBX.c ****             #if(0u != CapSense_CLICK_GEST_ENABLED)
 141:Generated_Source\PSoC4/CapSense_MBX.c ****                 CapSense_gesturesConfig.clickRadiusX            = (uint8)inbox->CapSense_inboxTmgCf
 142:Generated_Source\PSoC4/CapSense_MBX.c ****                 CapSense_gesturesConfig.clickRadiusY            = (uint8)inbox->CapSense_inboxTmgCf
 143:Generated_Source\PSoC4/CapSense_MBX.c ****                 CapSense_gesturesConfig.doubleClickRadius       = (uint8)inbox->CapSense_inboxTmgCf
 144:Generated_Source\PSoC4/CapSense_MBX.c ****                 CapSense_gesturesConfig.STDoubleClickTimeoutMax = inbox->CapSense_inboxTmgCfg.stDou
ARM GAS  C:\Users\srhi\AppData\Local\Temp\ccKNHqqh.s 			page 4


 145:Generated_Source\PSoC4/CapSense_MBX.c ****                 CapSense_gesturesConfig.STDoubleClickTimeoutMin = inbox->CapSense_inboxTmgCfg.stDou
 146:Generated_Source\PSoC4/CapSense_MBX.c ****                 CapSense_gesturesConfig.STClickTimeoutMax       = inbox->CapSense_inboxTmgCfg.stCli
 147:Generated_Source\PSoC4/CapSense_MBX.c ****                 CapSense_gesturesConfig.STClickTimeoutMin       = inbox->CapSense_inboxTmgCfg.stCli
 148:Generated_Source\PSoC4/CapSense_MBX.c ****                 CapSense_gesturesConfig.DTClickTimeoutMax       = inbox->CapSense_inboxTmgCfg.dtCli
 149:Generated_Source\PSoC4/CapSense_MBX.c ****                 CapSense_gesturesConfig.DTClickTimeoutMin       = inbox->CapSense_inboxTmgCfg.dtCli
 150:Generated_Source\PSoC4/CapSense_MBX.c ****             #endif /* (0u != CapSense_CLICK_GEST_ENABLED) */
 151:Generated_Source\PSoC4/CapSense_MBX.c **** 
 152:Generated_Source\PSoC4/CapSense_MBX.c ****             #if(0u != CapSense_ZOOM_GEST_ENABLED)
 153:Generated_Source\PSoC4/CapSense_MBX.c ****                 CapSense_gesturesConfig.dtScrollToZoomDebounce  = inbox->CapSense_inboxTmgCfg.dtPan
 154:Generated_Source\PSoC4/CapSense_MBX.c ****                 CapSense_gesturesConfig.DTZoomDebounce          = inbox->CapSense_inboxTmgCfg.dtZoo
 155:Generated_Source\PSoC4/CapSense_MBX.c ****                 CapSense_gesturesConfig.zoomActiveDistanceX     = inbox->CapSense_inboxTmgCfg.zoomA
 156:Generated_Source\PSoC4/CapSense_MBX.c ****                 CapSense_gesturesConfig.zoomActiveDistanceY     = inbox->CapSense_inboxTmgCfg.zoomA
 157:Generated_Source\PSoC4/CapSense_MBX.c ****             #endif /* (0u != CapSense_ZOOM_GEST_ENABLED) */
 158:Generated_Source\PSoC4/CapSense_MBX.c **** 
 159:Generated_Source\PSoC4/CapSense_MBX.c ****             #if(0u != CapSense_ST_SCROLL_GEST_ENABLED)
 160:Generated_Source\PSoC4/CapSense_MBX.c ****                 CapSense_gesturesConfig.stScrollDebounce        = inbox->CapSense_inboxTmgCfg.stScr
 161:Generated_Source\PSoC4/CapSense_MBX.c **** 
 162:Generated_Source\PSoC4/CapSense_MBX.c ****                 CapSense_gesturesConfig.stScrollThreshold1X     = inbox->CapSense_inboxTmgCfg.stScr
 163:Generated_Source\PSoC4/CapSense_MBX.c ****                 CapSense_gesturesConfig.stScrollThreshold2X     = inbox->CapSense_inboxTmgCfg.stScr
 164:Generated_Source\PSoC4/CapSense_MBX.c ****                 CapSense_gesturesConfig.stScrollThreshold3X     = inbox->CapSense_inboxTmgCfg.stScr
 165:Generated_Source\PSoC4/CapSense_MBX.c ****                 CapSense_gesturesConfig.stScrollThreshold4X     = inbox->CapSense_inboxTmgCfg.stScr
 166:Generated_Source\PSoC4/CapSense_MBX.c ****                 CapSense_gesturesConfig.stScrollThreshold1Y     = inbox->CapSense_inboxTmgCfg.stScr
 167:Generated_Source\PSoC4/CapSense_MBX.c ****                 CapSense_gesturesConfig.stScrollThreshold2Y     = inbox->CapSense_inboxTmgCfg.stScr
 168:Generated_Source\PSoC4/CapSense_MBX.c ****                 CapSense_gesturesConfig.stScrollThreshold3Y     = inbox->CapSense_inboxTmgCfg.stScr
 169:Generated_Source\PSoC4/CapSense_MBX.c ****                 CapSense_gesturesConfig.stScrollThreshold4Y     = inbox->CapSense_inboxTmgCfg.stScr
 170:Generated_Source\PSoC4/CapSense_MBX.c ****                 CapSense_gesturesConfig.stScrollStep1           = inbox->CapSense_inboxTmgCfg.stScr
 171:Generated_Source\PSoC4/CapSense_MBX.c ****                 CapSense_gesturesConfig.stScrollStep2           = inbox->CapSense_inboxTmgCfg.stScr
 172:Generated_Source\PSoC4/CapSense_MBX.c ****                 CapSense_gesturesConfig.stScrollStep3           = inbox->CapSense_inboxTmgCfg.stScr
 173:Generated_Source\PSoC4/CapSense_MBX.c ****                 CapSense_gesturesConfig.stScrollStep4           = inbox->CapSense_inboxTmgCfg.stScr
 174:Generated_Source\PSoC4/CapSense_MBX.c ****                 CapSense_gesturesConfig.stInScrActiveDistanceX  = inbox->CapSense_inboxTmgCfg.stInS
 175:Generated_Source\PSoC4/CapSense_MBX.c ****                 CapSense_gesturesConfig.stInScrActiveDistanceY  = inbox->CapSense_inboxTmgCfg.stInS
 176:Generated_Source\PSoC4/CapSense_MBX.c ****                 CapSense_gesturesConfig.stInScrCountLevel       = inbox->CapSense_inboxTmgCfg.stInS
 177:Generated_Source\PSoC4/CapSense_MBX.c ****             #endif /* (0u != CapSense_ST_SCROLL_GEST_ENABLED) */
 178:Generated_Source\PSoC4/CapSense_MBX.c **** 
 179:Generated_Source\PSoC4/CapSense_MBX.c ****             #if(0u != CapSense_DT_SCROLL_GEST_ENABLED)
 180:Generated_Source\PSoC4/CapSense_MBX.c ****                 CapSense_gesturesConfig.dtScrollDebounce        = inbox->CapSense_inboxTmgCfg.dtScr
 181:Generated_Source\PSoC4/CapSense_MBX.c ****                 CapSense_gesturesConfig.dtScrollThreshold1X     = inbox->CapSense_inboxTmgCfg.dtScr
 182:Generated_Source\PSoC4/CapSense_MBX.c ****                 CapSense_gesturesConfig.dtScrollThreshold2X     = inbox->CapSense_inboxTmgCfg.dtScr
 183:Generated_Source\PSoC4/CapSense_MBX.c ****                 CapSense_gesturesConfig.dtScrollThreshold3X     = inbox->CapSense_inboxTmgCfg.dtScr
 184:Generated_Source\PSoC4/CapSense_MBX.c ****                 CapSense_gesturesConfig.dtScrollThreshold4X     = inbox->CapSense_inboxTmgCfg.dtScr
 185:Generated_Source\PSoC4/CapSense_MBX.c ****                 CapSense_gesturesConfig.dtScrollThreshold1Y     = inbox->CapSense_inboxTmgCfg.dtScr
 186:Generated_Source\PSoC4/CapSense_MBX.c ****                 CapSense_gesturesConfig.dtScrollThreshold2Y     = inbox->CapSense_inboxTmgCfg.dtScr
 187:Generated_Source\PSoC4/CapSense_MBX.c ****                 CapSense_gesturesConfig.dtScrollThreshold3Y     = inbox->CapSense_inboxTmgCfg.dtScr
 188:Generated_Source\PSoC4/CapSense_MBX.c ****                 CapSense_gesturesConfig.dtScrollThreshold4Y     = inbox->CapSense_inboxTmgCfg.dtScr
 189:Generated_Source\PSoC4/CapSense_MBX.c ****                 CapSense_gesturesConfig.dtScrollStep1           = inbox->CapSense_inboxTmgCfg.dtScr
 190:Generated_Source\PSoC4/CapSense_MBX.c ****                 CapSense_gesturesConfig.dtScrollStep2           = inbox->CapSense_inboxTmgCfg.dtScr
 191:Generated_Source\PSoC4/CapSense_MBX.c ****                 CapSense_gesturesConfig.dtScrollStep3           = inbox->CapSense_inboxTmgCfg.dtScr
 192:Generated_Source\PSoC4/CapSense_MBX.c ****                 CapSense_gesturesConfig.dtScrollStep4           = inbox->CapSense_inboxTmgCfg.dtScr
 193:Generated_Source\PSoC4/CapSense_MBX.c ****                 CapSense_gesturesConfig.dtInScrActiveDistanceX  = inbox->CapSense_inboxTmgCfg.dtInS
 194:Generated_Source\PSoC4/CapSense_MBX.c ****                 CapSense_gesturesConfig.dtInScrActiveDistanceY  = inbox->CapSense_inboxTmgCfg.dtInS
 195:Generated_Source\PSoC4/CapSense_MBX.c ****                 CapSense_gesturesConfig.dtInScrCountLevel       = inbox->CapSense_inboxTmgCfg.dtInS
 196:Generated_Source\PSoC4/CapSense_MBX.c ****             #endif /* (0u != CapSense_DT_SCROLL_GEST_ENABLED) */
 197:Generated_Source\PSoC4/CapSense_MBX.c **** 
 198:Generated_Source\PSoC4/CapSense_MBX.c ****             #if(0u != CapSense_FLICK_GEST_ENABLED)
 199:Generated_Source\PSoC4/CapSense_MBX.c ****                 CapSense_gesturesConfig.flickSampleTime         = inbox->CapSense_inboxTmgCfg.flick
 200:Generated_Source\PSoC4/CapSense_MBX.c ****                 CapSense_gesturesConfig.flickActiveDistanceX    = inbox->CapSense_inboxTmgCfg.flick
 201:Generated_Source\PSoC4/CapSense_MBX.c ****                 CapSense_gesturesConfig.flickActiveDistanceY    = inbox->CapSense_inboxTmgCfg.flick
ARM GAS  C:\Users\srhi\AppData\Local\Temp\ccKNHqqh.s 			page 5


 202:Generated_Source\PSoC4/CapSense_MBX.c ****             #endif /* (0u != CapSense_FLICK_GEST_ENABLED) */
 203:Generated_Source\PSoC4/CapSense_MBX.c **** 
 204:Generated_Source\PSoC4/CapSense_MBX.c ****             #if(0u != CapSense_ROTATE_GEST_ENABLED)
 205:Generated_Source\PSoC4/CapSense_MBX.c ****                 CapSense_gesturesConfig.rotateDebounce          = inbox->CapSense_inboxTmgCfg.rotat
 206:Generated_Source\PSoC4/CapSense_MBX.c ****             #endif /* (0u != CapSense_ROTATE_GEST_ENABLED) */
 207:Generated_Source\PSoC4/CapSense_MBX.c **** 
 208:Generated_Source\PSoC4/CapSense_MBX.c ****             #if(0u != CapSense_EDGE_SWIPE_GEST_ENABLED)
 209:Generated_Source\PSoC4/CapSense_MBX.c ****                 CapSense_gesturesConfig.edgeSwipeActiveDistance = inbox->CapSense_inboxTmgCfg.edgeS
 210:Generated_Source\PSoC4/CapSense_MBX.c ****                 CapSense_gesturesConfig.bottomAngleThreshold    = inbox->CapSense_inboxTmgCfg.botto
 211:Generated_Source\PSoC4/CapSense_MBX.c ****                 CapSense_gesturesConfig.edgeSwipeTimeout        = inbox->CapSense_inboxTmgCfg.edgeS
 212:Generated_Source\PSoC4/CapSense_MBX.c ****                 CapSense_TMG_edgeSwipeCompleteTimeout           = inbox->CapSense_inboxTmgCfg.edgeS
 213:Generated_Source\PSoC4/CapSense_MBX.c ****                 CapSense_gesturesConfig.topAngleThreshold       = inbox->CapSense_inboxTmgCfg.topAn
 214:Generated_Source\PSoC4/CapSense_MBX.c ****                 CapSense_gesturesConfig.widthOfDisambiguation   = inbox->CapSense_inboxTmgCfg.width
 215:Generated_Source\PSoC4/CapSense_MBX.c ****             #endif /* (0u != CapSense_EDGE_SWIPE_GEST_ENABLED) */
 216:Generated_Source\PSoC4/CapSense_MBX.c **** 
 217:Generated_Source\PSoC4/CapSense_MBX.c ****             CapSense_TMG_InitGestures(&CapSense_gesturesConfig);
 218:Generated_Source\PSoC4/CapSense_MBX.c ****         #endif /* (0u != CapSense_IS_ANY_GESTURES_EN) */
 219:Generated_Source\PSoC4/CapSense_MBX.c **** 
 220:Generated_Source\PSoC4/CapSense_MBX.c ****         #if(0u != CapSense_TP_GESTURE_POS_FILTERS_MASK)
 221:Generated_Source\PSoC4/CapSense_MBX.c ****             CapSense_posFiltersMask[CapSense_TRACKPAD__TPG] = inbox->CapSense_inboxTmgCfg.filtersMa
 222:Generated_Source\PSoC4/CapSense_MBX.c ****         #endif /* (0u != CapSense_TP_GESTURE_POS_FILTERS_MASK) */
 223:Generated_Source\PSoC4/CapSense_MBX.c **** 
 224:Generated_Source\PSoC4/CapSense_MBX.c ****         #if(0u != (CapSense_XY_ADAPTIVE_IIR_MASK & CapSense_TP_GESTURE_POS_FILTERS_MASK))
 225:Generated_Source\PSoC4/CapSense_MBX.c ****             CapSense_adpFltOptions.divVal       = inbox->CapSense_inboxTmgCfg.filterDivisor;
 226:Generated_Source\PSoC4/CapSense_MBX.c ****             CapSense_adpFltOptions.largeMovTh   = inbox->CapSense_inboxTmgCfg.largeMovThreshold;
 227:Generated_Source\PSoC4/CapSense_MBX.c ****             CapSense_adpFltOptions.littleMovTh  = inbox->CapSense_inboxTmgCfg.littleMovThreshold;
 228:Generated_Source\PSoC4/CapSense_MBX.c ****             CapSense_adpFltOptions.maxK     = inbox->CapSense_inboxTmgCfg.maxFilterCoef;
 229:Generated_Source\PSoC4/CapSense_MBX.c ****             CapSense_adpFltOptions.minK     = inbox->CapSense_inboxTmgCfg.minFilterCoef;
 230:Generated_Source\PSoC4/CapSense_MBX.c ****             CapSense_adpFltOptions.noMovTh      = inbox->CapSense_inboxTmgCfg.noMovThreshold;
 231:Generated_Source\PSoC4/CapSense_MBX.c ****         #endif /* (0u != (CapSense_XY_ADAPTIVE_IIR_MASK & CapSense_TP_GESTURE_POS_FILTERS_MASK)) */
 232:Generated_Source\PSoC4/CapSense_MBX.c ****     }
 233:Generated_Source\PSoC4/CapSense_MBX.c **** #endif /* ((CapSense_TUNING_METHOD != CapSense__TUNING_NONE) && (0u != CapSense_TOTAL_TRACKPAD_GEST
 234:Generated_Source\PSoC4/CapSense_MBX.c **** 
 235:Generated_Source\PSoC4/CapSense_MBX.c **** 
 236:Generated_Source\PSoC4/CapSense_MBX.c **** /*******************************************************************************
 237:Generated_Source\PSoC4/CapSense_MBX.c **** * Function Name: CapSense_InitMailbox
 238:Generated_Source\PSoC4/CapSense_MBX.c **** ********************************************************************************
 239:Generated_Source\PSoC4/CapSense_MBX.c **** *
 240:Generated_Source\PSoC4/CapSense_MBX.c **** * Summary:
 241:Generated_Source\PSoC4/CapSense_MBX.c **** *  Initializes parameters of the mailbox structure.
 242:Generated_Source\PSoC4/CapSense_MBX.c **** *  Sets the type and size of the mailbox structure.
 243:Generated_Source\PSoC4/CapSense_MBX.c **** *  Sets a check sum to check by the Tuner GUI and noReadMsg flag to indicate that this
 244:Generated_Source\PSoC4/CapSense_MBX.c **** *  is the first communication packet.
 245:Generated_Source\PSoC4/CapSense_MBX.c **** *
 246:Generated_Source\PSoC4/CapSense_MBX.c **** * Parameters:
 247:Generated_Source\PSoC4/CapSense_MBX.c **** *  mbx:  Pointer to Mailbox structure in RAM.
 248:Generated_Source\PSoC4/CapSense_MBX.c **** *
 249:Generated_Source\PSoC4/CapSense_MBX.c **** * Return:
 250:Generated_Source\PSoC4/CapSense_MBX.c **** *  None. Modifies the contents of mbx and mbx->outbox.
 251:Generated_Source\PSoC4/CapSense_MBX.c **** *
 252:Generated_Source\PSoC4/CapSense_MBX.c **** * Global Variables:
 253:Generated_Source\PSoC4/CapSense_MBX.c **** *  None
 254:Generated_Source\PSoC4/CapSense_MBX.c **** *
 255:Generated_Source\PSoC4/CapSense_MBX.c **** *******************************************************************************/
 256:Generated_Source\PSoC4/CapSense_MBX.c **** void CapSense_InitMailbox(volatile CapSense_MAILBOX *mbx)
 257:Generated_Source\PSoC4/CapSense_MBX.c **** {
  28              		.loc 1 257 0
ARM GAS  C:\Users\srhi\AppData\Local\Temp\ccKNHqqh.s 			page 6


  29              		.cfi_startproc
  30              		@ args = 0, pretend = 0, frame = 0
  31              		@ frame_needed = 0, uses_anonymous_args = 0
  32              		@ link register save eliminated.
  33              	.LVL0:
 258:Generated_Source\PSoC4/CapSense_MBX.c ****     /* Restore TYPE_ID (clear busy flag) to indicate "action complete" */
 259:Generated_Source\PSoC4/CapSense_MBX.c ****     mbx->type = CapSense_TYPE_ID;
  34              		.loc 1 259 0
  35 0000 0423     		movs	r3, #4
  36 0002 0370     		strb	r3, [r0]
 260:Generated_Source\PSoC4/CapSense_MBX.c ****     /* Restore default value - clear "have_msg" */
 261:Generated_Source\PSoC4/CapSense_MBX.c ****     mbx->size = sizeof(CapSense_MAILBOX);
  37              		.loc 1 261 0
  38 0004 4278     		ldrb	r2, [r0, #1]
  39 0006 1322     		movs	r2, #19
  40 0008 4270     		strb	r2, [r0, #1]
  41 000a 8278     		ldrb	r2, [r0, #2]
  42 000c 0022     		movs	r2, #0
  43 000e 8270     		strb	r2, [r0, #2]
 262:Generated_Source\PSoC4/CapSense_MBX.c **** 
 263:Generated_Source\PSoC4/CapSense_MBX.c ****     /* Additional fields for async and reset handling */
 264:Generated_Source\PSoC4/CapSense_MBX.c ****     #if((CapSense_TUNING_METHOD != CapSense__TUNING_NONE) && (0u != CapSense_TOTAL_TRACKPAD_GESTURE
 265:Generated_Source\PSoC4/CapSense_MBX.c ****         (CapSense_TUNING_METHOD == CapSense__TUNING_MANUAL))
 266:Generated_Source\PSoC4/CapSense_MBX.c ****         mbx->outbox.noReadMessage = 1u;
 267:Generated_Source\PSoC4/CapSense_MBX.c ****     #endif  /* ((CapSense_TUNING_METHOD != CapSense__TUNING_NONE) && (0u != CapSense_TOTAL_TRACKPAD
 268:Generated_Source\PSoC4/CapSense_MBX.c ****                 (CapSense_TUNING_METHOD == CapSense__TUNING_MANUAL)) */
 269:Generated_Source\PSoC4/CapSense_MBX.c **** 
 270:Generated_Source\PSoC4/CapSense_MBX.c ****     mbx->outbox.checkSum = (uint16)(CapSense_CHECK_SUM);
  44              		.loc 1 270 0
  45 0010 427C     		ldrb	r2, [r0, #17]
  46 0012 0B22     		movs	r2, #11
  47 0014 4274     		strb	r2, [r0, #17]
  48 0016 827C     		ldrb	r2, [r0, #18]
  49 0018 0022     		movs	r2, #0
  50 001a 8274     		strb	r2, [r0, #18]
 271:Generated_Source\PSoC4/CapSense_MBX.c **** }
  51              		.loc 1 271 0
  52              		@ sp needed
  53 001c 7047     		bx	lr
  54              		.cfi_endproc
  55              	.LFE32:
  56              		.size	CapSense_InitMailbox, .-CapSense_InitMailbox
  57 001e C046     		.section	.text.CapSense_PostMessage,"ax",%progbits
  58              		.align	2
  59              		.global	CapSense_PostMessage
  60              		.code	16
  61              		.thumb_func
  62              		.type	CapSense_PostMessage, %function
  63              	CapSense_PostMessage:
  64              	.LFB33:
 272:Generated_Source\PSoC4/CapSense_MBX.c **** 
 273:Generated_Source\PSoC4/CapSense_MBX.c **** 
 274:Generated_Source\PSoC4/CapSense_MBX.c **** /*******************************************************************************
 275:Generated_Source\PSoC4/CapSense_MBX.c **** * Function Name:  CapSense_PostMessage
 276:Generated_Source\PSoC4/CapSense_MBX.c **** ********************************************************************************
 277:Generated_Source\PSoC4/CapSense_MBX.c **** *
 278:Generated_Source\PSoC4/CapSense_MBX.c **** * Summary:
ARM GAS  C:\Users\srhi\AppData\Local\Temp\ccKNHqqh.s 			page 7


 279:Generated_Source\PSoC4/CapSense_MBX.c **** *  This blocking function waits while the Tuner GUI reports that the mailbox content
 280:Generated_Source\PSoC4/CapSense_MBX.c **** *  could be modified (clears CapSense_BUSY_FLAG). Then loads the report
 281:Generated_Source\PSoC4/CapSense_MBX.c **** *  data to the outbox and sets a busy flag.
 282:Generated_Source\PSoC4/CapSense_MBX.c **** *  In the manual tuning mode the report data is:
 283:Generated_Source\PSoC4/CapSense_MBX.c **** *    - raw data, baseline, signal;
 284:Generated_Source\PSoC4/CapSense_MBX.c **** *  In the auto tuning mode the added data is:
 285:Generated_Source\PSoC4/CapSense_MBX.c **** *    - fingerThreshold;
 286:Generated_Source\PSoC4/CapSense_MBX.c **** *    - noiseThreshold;
 287:Generated_Source\PSoC4/CapSense_MBX.c **** *    - scanResolution;
 288:Generated_Source\PSoC4/CapSense_MBX.c **** *    - idacValue;
 289:Generated_Source\PSoC4/CapSense_MBX.c **** *    - prescaler.
 290:Generated_Source\PSoC4/CapSense_MBX.c **** *
 291:Generated_Source\PSoC4/CapSense_MBX.c **** * Parameters:
 292:Generated_Source\PSoC4/CapSense_MBX.c **** *  mbx:  Pointer to Mailbox structure in RAM.
 293:Generated_Source\PSoC4/CapSense_MBX.c **** *
 294:Generated_Source\PSoC4/CapSense_MBX.c **** * Return:
 295:Generated_Source\PSoC4/CapSense_MBX.c **** *  None. Modifies the contents of mbx->outbox.
 296:Generated_Source\PSoC4/CapSense_MBX.c **** *
 297:Generated_Source\PSoC4/CapSense_MBX.c **** * Global Variables:
 298:Generated_Source\PSoC4/CapSense_MBX.c **** *  None
 299:Generated_Source\PSoC4/CapSense_MBX.c **** *
 300:Generated_Source\PSoC4/CapSense_MBX.c **** *******************************************************************************/
 301:Generated_Source\PSoC4/CapSense_MBX.c **** void CapSense_PostMessage(volatile CapSense_MAILBOX *mbx)
 302:Generated_Source\PSoC4/CapSense_MBX.c **** {
  65              		.loc 1 302 0
  66              		.cfi_startproc
  67              		@ args = 0, pretend = 0, frame = 0
  68              		@ frame_needed = 0, uses_anonymous_args = 0
  69              	.LVL1:
  70 0000 F0B5     		push	{r4, r5, r6, r7, lr}
  71              		.cfi_def_cfa_offset 20
  72              		.cfi_offset 4, -20
  73              		.cfi_offset 5, -16
  74              		.cfi_offset 6, -12
  75              		.cfi_offset 7, -8
  76              		.cfi_offset 14, -4
  77              	.L3:
 303:Generated_Source\PSoC4/CapSense_MBX.c ****     uint8 i;
 304:Generated_Source\PSoC4/CapSense_MBX.c **** 
 305:Generated_Source\PSoC4/CapSense_MBX.c ****     #if ( CapSense_TUNING_METHOD == CapSense__TUNING_AUTO )
 306:Generated_Source\PSoC4/CapSense_MBX.c ****         uint8 tmpResolutionIndex;
 307:Generated_Source\PSoC4/CapSense_MBX.c ****         uint16 tmpResolutionValue;
 308:Generated_Source\PSoC4/CapSense_MBX.c ****     #endif /* ( CapSense_TUNING_METHOD == CapSense__TUNING_AUTO ) */
 309:Generated_Source\PSoC4/CapSense_MBX.c **** 
 310:Generated_Source\PSoC4/CapSense_MBX.c ****     /* Check busy flag */
 311:Generated_Source\PSoC4/CapSense_MBX.c ****     while (mbx->type != CapSense_TYPE_ID){}
  78              		.loc 1 311 0 discriminator 1
  79 0002 0378     		ldrb	r3, [r0]
  80 0004 042B     		cmp	r3, #4
  81 0006 FCD1     		bne	.L3
  82 0008 0023     		movs	r3, #0
  83 000a 08E0     		b	.L4
  84              	.LVL2:
  85              	.L5:
 312:Generated_Source\PSoC4/CapSense_MBX.c **** 
 313:Generated_Source\PSoC4/CapSense_MBX.c ****     /* Copy scan parameters */
 314:Generated_Source\PSoC4/CapSense_MBX.c ****     #if((CapSense_TUNING_METHOD == CapSense__TUNING_AUTO) || (0u != CapSense_AUTOCALIBRATION_ENABLE
ARM GAS  C:\Users\srhi\AppData\Local\Temp\ccKNHqqh.s 			page 8


 315:Generated_Source\PSoC4/CapSense_MBX.c ****         /* Copy tuned idac values */
 316:Generated_Source\PSoC4/CapSense_MBX.c ****         for(i = 0u; i < CapSense_TOTAL_SENSOR_COUNT; i++)
 317:Generated_Source\PSoC4/CapSense_MBX.c ****         {
 318:Generated_Source\PSoC4/CapSense_MBX.c ****             mbx->outbox.modulationIDAC[i] = CapSense_modulationIDAC[i];
  86              		.loc 1 318 0 discriminator 3
  87 000c 2E4A     		ldr	r2, .L16
  88 000e D15C     		ldrb	r1, [r2, r3]
  89 0010 C218     		adds	r2, r0, r3
  90 0012 1173     		strb	r1, [r2, #12]
 319:Generated_Source\PSoC4/CapSense_MBX.c ****             #if (CapSense_IDAC_CNT == 2u)
 320:Generated_Source\PSoC4/CapSense_MBX.c ****                 mbx->outbox.compensationIDAC[i] = CapSense_compensationIDAC[i];
  91              		.loc 1 320 0 discriminator 3
  92 0014 2D49     		ldr	r1, .L16+4
  93 0016 C95C     		ldrb	r1, [r1, r3]
  94 0018 5173     		strb	r1, [r2, #13]
 316:Generated_Source\PSoC4/CapSense_MBX.c ****         {
  95              		.loc 1 316 0 discriminator 3
  96 001a 0133     		adds	r3, r3, #1
  97              	.LVL3:
  98 001c DBB2     		uxtb	r3, r3
  99              	.LVL4:
 100              	.L4:
 316:Generated_Source\PSoC4/CapSense_MBX.c ****         {
 101              		.loc 1 316 0 is_stmt 0 discriminator 1
 102 001e 002B     		cmp	r3, #0
 103 0020 F4D0     		beq	.L5
 104 0022 0023     		movs	r3, #0
 105              	.LVL5:
 106 0024 08E0     		b	.L6
 107              	.LVL6:
 108              	.L7:
 321:Generated_Source\PSoC4/CapSense_MBX.c ****             #endif /* (CapSense_IDAC_CNT == 2u) */
 322:Generated_Source\PSoC4/CapSense_MBX.c ****         }
 323:Generated_Source\PSoC4/CapSense_MBX.c ****     #endif /* ((CapSense_TUNING_METHOD == CapSense__TUNING_AUTO) || (0u != CapSense_AUTOCALIBRATION
 324:Generated_Source\PSoC4/CapSense_MBX.c **** 
 325:Generated_Source\PSoC4/CapSense_MBX.c ****     #if ( CapSense_TUNING_METHOD == CapSense__TUNING_AUTO )
 326:Generated_Source\PSoC4/CapSense_MBX.c ****         for(i = 0u; i < CapSense_TOTAL_SCANSLOT_COUNT; i++)
 327:Generated_Source\PSoC4/CapSense_MBX.c ****         {
 328:Generated_Source\PSoC4/CapSense_MBX.c ****             mbx->outbox.analogSwitchDivider[i] = CapSense_senseClkDividerVal[i];
 109              		.loc 1 328 0 is_stmt 1 discriminator 3
 110 0026 2A4A     		ldr	r2, .L16+8
 111 0028 D15C     		ldrb	r1, [r2, r3]
 112 002a C218     		adds	r2, r0, r3
 113 002c 9173     		strb	r1, [r2, #14]
 329:Generated_Source\PSoC4/CapSense_MBX.c ****             mbx->outbox.modulatorDivider[i] = CapSense_sampleClkDividerVal[i];
 114              		.loc 1 329 0 discriminator 3
 115 002e 2949     		ldr	r1, .L16+12
 116 0030 C95C     		ldrb	r1, [r1, r3]
 117 0032 D173     		strb	r1, [r2, #15]
 326:Generated_Source\PSoC4/CapSense_MBX.c ****         {
 118              		.loc 1 326 0 discriminator 3
 119 0034 0133     		adds	r3, r3, #1
 120              	.LVL7:
 121 0036 DBB2     		uxtb	r3, r3
 122              	.LVL8:
 123              	.L6:
 326:Generated_Source\PSoC4/CapSense_MBX.c ****         {
ARM GAS  C:\Users\srhi\AppData\Local\Temp\ccKNHqqh.s 			page 9


 124              		.loc 1 326 0 is_stmt 0 discriminator 1
 125 0038 002B     		cmp	r3, #0
 126 003a F4D0     		beq	.L7
 127 003c 0021     		movs	r1, #0
 128 003e 0FE0     		b	.L8
 129              	.LVL9:
 130              	.L11:
 330:Generated_Source\PSoC4/CapSense_MBX.c ****         }
 331:Generated_Source\PSoC4/CapSense_MBX.c **** 
 332:Generated_Source\PSoC4/CapSense_MBX.c ****         /* Widget resolution, take to account TP and MB */
 333:Generated_Source\PSoC4/CapSense_MBX.c ****         for(i = 0u; i < CapSense_WIDGET_RESOLUTION_PARAMETERS_COUNT; i++)
 334:Generated_Source\PSoC4/CapSense_MBX.c ****         {
 335:Generated_Source\PSoC4/CapSense_MBX.c ****             tmpResolutionValue = (uint16)(CapSense_widgetResolution[i] >> CapSense_MSB_RESOLUTION_O
 131              		.loc 1 335 0 is_stmt 1
 132 0040 0C00     		movs	r4, r1
 133 0042 8B00     		lsls	r3, r1, #2
 134 0044 244A     		ldr	r2, .L16+16
 135 0046 9A58     		ldr	r2, [r3, r2]
 136 0048 920D     		lsrs	r2, r2, #22
 137              	.LVL10:
 336:Generated_Source\PSoC4/CapSense_MBX.c ****             tmpResolutionIndex = 0u;
 138              		.loc 1 336 0
 139 004a 0023     		movs	r3, #0
 337:Generated_Source\PSoC4/CapSense_MBX.c **** 
 338:Generated_Source\PSoC4/CapSense_MBX.c ****             while(0u != tmpResolutionValue)
 140              		.loc 1 338 0
 141 004c 02E0     		b	.L9
 142              	.LVL11:
 143              	.L10:
 339:Generated_Source\PSoC4/CapSense_MBX.c ****             {
 340:Generated_Source\PSoC4/CapSense_MBX.c ****                 tmpResolutionIndex++;
 144              		.loc 1 340 0
 145 004e 0133     		adds	r3, r3, #1
 146              	.LVL12:
 147 0050 DBB2     		uxtb	r3, r3
 148              	.LVL13:
 341:Generated_Source\PSoC4/CapSense_MBX.c ****                 tmpResolutionValue >>= 1u;
 149              		.loc 1 341 0
 150 0052 5208     		lsrs	r2, r2, #1
 151              	.LVL14:
 152              	.L9:
 338:Generated_Source\PSoC4/CapSense_MBX.c ****             {
 153              		.loc 1 338 0
 154 0054 002A     		cmp	r2, #0
 155 0056 FAD1     		bne	.L10
 342:Generated_Source\PSoC4/CapSense_MBX.c ****             }
 343:Generated_Source\PSoC4/CapSense_MBX.c **** 
 344:Generated_Source\PSoC4/CapSense_MBX.c ****             mbx->outbox.scanResolution[i] = tmpResolutionIndex;
 156              		.loc 1 344 0 discriminator 2
 157 0058 0219     		adds	r2, r0, r4
 158              	.LVL15:
 159 005a 1374     		strb	r3, [r2, #16]
 333:Generated_Source\PSoC4/CapSense_MBX.c ****         {
 160              		.loc 1 333 0 discriminator 2
 161 005c 0131     		adds	r1, r1, #1
 162              	.LVL16:
 163 005e C9B2     		uxtb	r1, r1
ARM GAS  C:\Users\srhi\AppData\Local\Temp\ccKNHqqh.s 			page 10


 164              	.LVL17:
 165              	.L8:
 333:Generated_Source\PSoC4/CapSense_MBX.c ****         {
 166              		.loc 1 333 0 is_stmt 0 discriminator 1
 167 0060 0029     		cmp	r1, #0
 168 0062 EDD0     		beq	.L11
 169 0064 0023     		movs	r3, #0
 170 0066 0BE0     		b	.L12
 171              	.LVL18:
 172              	.L13:
 345:Generated_Source\PSoC4/CapSense_MBX.c ****         }
 346:Generated_Source\PSoC4/CapSense_MBX.c **** 
 347:Generated_Source\PSoC4/CapSense_MBX.c ****         #if(0u != CapSense_CSHL_API_GENERATE)
 348:Generated_Source\PSoC4/CapSense_MBX.c ****             /* Parameters are changed in run time */
 349:Generated_Source\PSoC4/CapSense_MBX.c ****             for(i = 0u; i < CapSense_WIDGET_CSHL_PARAMETERS_COUNT; i++)
 350:Generated_Source\PSoC4/CapSense_MBX.c ****             {
 351:Generated_Source\PSoC4/CapSense_MBX.c ****                 mbx->outbox.fingerThreshold[i] = CapSense_fingerThreshold[i];
 173              		.loc 1 351 0 is_stmt 1 discriminator 3
 174 0068 1C4A     		ldr	r2, .L16+20
 175 006a D15C     		ldrb	r1, [r2, r3]
 176 006c C218     		adds	r2, r0, r3
 177 006e 1171     		strb	r1, [r2, #4]
 352:Generated_Source\PSoC4/CapSense_MBX.c ****                 mbx->outbox.noiseThreshold[i]  = CapSense_noiseThreshold[i];
 178              		.loc 1 352 0 discriminator 3
 179 0070 1B49     		ldr	r1, .L16+24
 180 0072 C95C     		ldrb	r1, [r1, r3]
 181 0074 5171     		strb	r1, [r2, #5]
 353:Generated_Source\PSoC4/CapSense_MBX.c ****                 mbx->outbox.hysteresis[i]      = CapSense_hysteresis[i];
 182              		.loc 1 353 0 discriminator 3
 183 0076 1B49     		ldr	r1, .L16+28
 184 0078 C95C     		ldrb	r1, [r1, r3]
 185 007a 9171     		strb	r1, [r2, #6]
 349:Generated_Source\PSoC4/CapSense_MBX.c ****             {
 186              		.loc 1 349 0 discriminator 3
 187 007c 0133     		adds	r3, r3, #1
 188              	.LVL19:
 189 007e DBB2     		uxtb	r3, r3
 190              	.LVL20:
 191              	.L12:
 349:Generated_Source\PSoC4/CapSense_MBX.c ****             {
 192              		.loc 1 349 0 is_stmt 0 discriminator 1
 193 0080 002B     		cmp	r3, #0
 194 0082 F1D0     		beq	.L13
 195 0084 0022     		movs	r2, #0
 196 0086 19E0     		b	.L14
 197              	.LVL21:
 198              	.L15:
 354:Generated_Source\PSoC4/CapSense_MBX.c ****             }
 355:Generated_Source\PSoC4/CapSense_MBX.c ****         #endif /* (0u != CapSense_CSHL_API_GENERATE) */
 356:Generated_Source\PSoC4/CapSense_MBX.c **** 
 357:Generated_Source\PSoC4/CapSense_MBX.c ****     #endif /* (CapSense_TUNING_METHOD == CapSense__TUNING_AUTO) */
 358:Generated_Source\PSoC4/CapSense_MBX.c **** 
 359:Generated_Source\PSoC4/CapSense_MBX.c **** 
 360:Generated_Source\PSoC4/CapSense_MBX.c ****     /* Copy all data - Raw, Base, Signal, OnMask */
 361:Generated_Source\PSoC4/CapSense_MBX.c ****     for(i = 0u; i < CapSense_TOTAL_SENSOR_COUNT; i++)
 362:Generated_Source\PSoC4/CapSense_MBX.c ****     {
 363:Generated_Source\PSoC4/CapSense_MBX.c ****         mbx->outbox.rawData[i]  = CapSense_sensorRaw[i];
ARM GAS  C:\Users\srhi\AppData\Local\Temp\ccKNHqqh.s 			page 11


 199              		.loc 1 363 0 is_stmt 1 discriminator 3
 200 0088 5500     		lsls	r5, r2, #1
 201 008a 174B     		ldr	r3, .L16+32
 202 008c E95A     		ldrh	r1, [r5, r3]
 203 008e 4319     		adds	r3, r0, r5
 204 0090 FF24     		movs	r4, #255
 205 0092 2600     		movs	r6, r4
 206 0094 0E40     		ands	r6, r1
 207 0096 1F7A     		ldrb	r7, [r3, #8]
 208 0098 1E72     		strb	r6, [r3, #8]
 209 009a 090A     		lsrs	r1, r1, #8
 210 009c 5E7A     		ldrb	r6, [r3, #9]
 211 009e 5972     		strb	r1, [r3, #9]
 364:Generated_Source\PSoC4/CapSense_MBX.c ****         #if(0u != CapSense_CSHL_API_GENERATE)
 365:Generated_Source\PSoC4/CapSense_MBX.c ****             mbx->outbox.baseLine[i] = CapSense_sensorBaseline[i];
 212              		.loc 1 365 0 discriminator 3
 213 00a0 1249     		ldr	r1, .L16+36
 214 00a2 695A     		ldrh	r1, [r5, r1]
 215 00a4 0C40     		ands	r4, r1
 216 00a6 9D7A     		ldrb	r5, [r3, #10]
 217 00a8 9C72     		strb	r4, [r3, #10]
 218 00aa 090A     		lsrs	r1, r1, #8
 219 00ac DC7A     		ldrb	r4, [r3, #11]
 220 00ae D972     		strb	r1, [r3, #11]
 366:Generated_Source\PSoC4/CapSense_MBX.c ****             #if (CapSense_SIGNAL_SIZE == CapSense_SIGNAL_SIZE_UINT8)
 367:Generated_Source\PSoC4/CapSense_MBX.c ****                 mbx->outbox.sensorSignal[i]   = (uint8)CapSense_sensorSignal[i];
 221              		.loc 1 367 0 discriminator 3
 222 00b0 0F4B     		ldr	r3, .L16+40
 223 00b2 995C     		ldrb	r1, [r3, r2]
 224 00b4 8318     		adds	r3, r0, r2
 225 00b6 D971     		strb	r1, [r3, #7]
 361:Generated_Source\PSoC4/CapSense_MBX.c ****     {
 226              		.loc 1 361 0 discriminator 3
 227 00b8 0132     		adds	r2, r2, #1
 228              	.LVL22:
 229 00ba D2B2     		uxtb	r2, r2
 230              	.LVL23:
 231              	.L14:
 361:Generated_Source\PSoC4/CapSense_MBX.c ****     {
 232              		.loc 1 361 0 is_stmt 0 discriminator 1
 233 00bc 002A     		cmp	r2, #0
 234 00be E3D0     		beq	.L15
 368:Generated_Source\PSoC4/CapSense_MBX.c ****             #else
 369:Generated_Source\PSoC4/CapSense_MBX.c ****                 mbx->outbox.sensorSignal[i]   = (uint16)CapSense_sensorSignal[i];
 370:Generated_Source\PSoC4/CapSense_MBX.c ****             #endif  /* (CapSense_SIGNAL_SIZE == CapSense_SIGNAL_SIZE_UINT8) */
 371:Generated_Source\PSoC4/CapSense_MBX.c ****         #endif /* (0u != CapSense_CSHL_API_GENERATE) */
 372:Generated_Source\PSoC4/CapSense_MBX.c ****     }
 373:Generated_Source\PSoC4/CapSense_MBX.c **** 
 374:Generated_Source\PSoC4/CapSense_MBX.c ****     /* Set busy flag */
 375:Generated_Source\PSoC4/CapSense_MBX.c ****     mbx->type = CapSense_BUSY_FLAG;
 235              		.loc 1 375 0 is_stmt 1
 236 00c0 8423     		movs	r3, #132
 237 00c2 0370     		strb	r3, [r0]
 376:Generated_Source\PSoC4/CapSense_MBX.c **** }
 238              		.loc 1 376 0
 239              		@ sp needed
 240 00c4 F0BD     		pop	{r4, r5, r6, r7, pc}
ARM GAS  C:\Users\srhi\AppData\Local\Temp\ccKNHqqh.s 			page 12


 241              	.L17:
 242 00c6 C046     		.align	2
 243              	.L16:
 244 00c8 00000000 		.word	CapSense_modulationIDAC
 245 00cc 00000000 		.word	CapSense_compensationIDAC
 246 00d0 00000000 		.word	CapSense_senseClkDividerVal
 247 00d4 00000000 		.word	CapSense_sampleClkDividerVal
 248 00d8 00000000 		.word	CapSense_widgetResolution
 249 00dc 00000000 		.word	CapSense_fingerThreshold
 250 00e0 00000000 		.word	CapSense_noiseThreshold
 251 00e4 00000000 		.word	CapSense_hysteresis
 252 00e8 00000000 		.word	CapSense_sensorRaw
 253 00ec 00000000 		.word	CapSense_sensorBaseline
 254 00f0 00000000 		.word	CapSense_sensorSignal
 255              		.cfi_endproc
 256              	.LFE33:
 257              		.size	CapSense_PostMessage, .-CapSense_PostMessage
 258              		.text
 259              	.Letext0:
 260              		.file 2 "Generated_Source\\PSoC4\\cytypes.h"
 261              		.file 3 "Generated_Source\\PSoC4\\CapSense_MBX.h"
 262              		.file 4 "Generated_Source\\PSoC4\\CapSense.h"
 263              		.file 5 "Generated_Source\\PSoC4\\CapSense_CSHL.h"