ARM GAS  C:\Users\srhi\AppData\Local\Temp\ccM2qOZf.s 			page 1


   1              		.syntax unified
   2              		.cpu cortex-m0
   3              		.fpu softvfp
   4              		.eabi_attribute 20, 1
   5              		.eabi_attribute 21, 1
   6              		.eabi_attribute 23, 3
   7              		.eabi_attribute 24, 1
   8              		.eabi_attribute 25, 1
   9              		.eabi_attribute 26, 1
  10              		.eabi_attribute 30, 1
  11              		.eabi_attribute 34, 0
  12              		.eabi_attribute 18, 4
  13              		.thumb
  14              		.syntax unified
  15              		.file	"main.c"
  16              		.text
  17              	.Ltext0:
  18              		.cfi_sections	.debug_frame
  19              		.section	.text.twinkle,"ax",%progbits
  20              		.align	2
  21              		.global	twinkle
  22              		.code	16
  23              		.thumb_func
  24              		.type	twinkle, %function
  25              	twinkle:
  26              	.LFB32:
  27              		.file 1 "main.c"
   1:main.c        **** /* ========================================
   2:main.c        ****  *
   3:main.c        ****  * Copyright YOUR COMPANY, THE YEAR
   4:main.c        ****  * All Rights Reserved
   5:main.c        ****  * UNPUBLISHED, LICENSED SOFTWARE.
   6:main.c        ****  *
   7:main.c        ****  * CONFIDENTIAL AND PROPRIETARY INFORMATION
   8:main.c        ****  * WHICH IS THE PROPERTY OF your company.
   9:main.c        ****  *
  10:main.c        ****  * ========================================
  11:main.c        **** */
  12:main.c        **** #include "project.h"
  13:main.c        **** #define A (1760)
  14:main.c        **** #define B (1975)
  15:main.c        **** #define C (1046)
  16:main.c        **** #define D (1174)
  17:main.c        **** #define E (1318)
  18:main.c        **** #define F (1396)
  19:main.c        **** #define G (1567)
  20:main.c        **** void twinkle(int delay){
  28              		.loc 1 20 0
  29              		.cfi_startproc
  30              		@ args = 0, pretend = 0, frame = 0
  31              		@ frame_needed = 0, uses_anonymous_args = 0
  32              	.LVL0:
  33 0000 F8B5     		push	{r3, r4, r5, r6, r7, lr}
  34              		.cfi_def_cfa_offset 24
  35              		.cfi_offset 3, -24
  36              		.cfi_offset 4, -20
  37              		.cfi_offset 5, -16
ARM GAS  C:\Users\srhi\AppData\Local\Temp\ccM2qOZf.s 			page 2


  38              		.cfi_offset 6, -12
  39              		.cfi_offset 7, -8
  40              		.cfi_offset 14, -4
  41 0002 0400     		movs	r4, r0
  21:main.c        ****     Clock_1_SetDividerValue(C);
  42              		.loc 1 21 0
  43 0004 0021     		movs	r1, #0
  44 0006 9E48     		ldr	r0, .L2
  45              	.LVL1:
  46 0008 FFF7FEFF 		bl	Clock_1_SetFractionalDividerRegister
  47              	.LVL2:
  22:main.c        ****         CyDelay(delay);
  48              		.loc 1 22 0
  49 000c 2000     		movs	r0, r4
  50 000e FFF7FEFF 		bl	CyDelay
  51              	.LVL3:
  23:main.c        ****         Clock_1_SetDividerValue(C);
  52              		.loc 1 23 0
  53 0012 0021     		movs	r1, #0
  54 0014 9A48     		ldr	r0, .L2
  55 0016 FFF7FEFF 		bl	Clock_1_SetFractionalDividerRegister
  56              	.LVL4:
  24:main.c        ****         CyDelay(delay);
  57              		.loc 1 24 0
  58 001a 2000     		movs	r0, r4
  59 001c FFF7FEFF 		bl	CyDelay
  60              	.LVL5:
  25:main.c        ****         Clock_1_SetDividerValue(G);
  61              		.loc 1 25 0
  62 0020 984D     		ldr	r5, .L2+4
  63 0022 0021     		movs	r1, #0
  64 0024 2800     		movs	r0, r5
  65 0026 FFF7FEFF 		bl	Clock_1_SetFractionalDividerRegister
  66              	.LVL6:
  26:main.c        ****         CyDelay(delay);
  67              		.loc 1 26 0
  68 002a 2000     		movs	r0, r4
  69 002c FFF7FEFF 		bl	CyDelay
  70              	.LVL7:
  27:main.c        ****         Clock_1_SetDividerValue(G);
  71              		.loc 1 27 0
  72 0030 0021     		movs	r1, #0
  73 0032 2800     		movs	r0, r5
  74 0034 FFF7FEFF 		bl	Clock_1_SetFractionalDividerRegister
  75              	.LVL8:
  28:main.c        ****         CyDelay(delay);
  76              		.loc 1 28 0
  77 0038 2000     		movs	r0, r4
  78 003a FFF7FEFF 		bl	CyDelay
  79              	.LVL9:
  29:main.c        ****         Clock_1_SetDividerValue(A);
  80              		.loc 1 29 0
  81 003e 0021     		movs	r1, #0
  82 0040 9148     		ldr	r0, .L2+8
  83 0042 FFF7FEFF 		bl	Clock_1_SetFractionalDividerRegister
  84              	.LVL10:
  30:main.c        ****         CyDelay(delay);
ARM GAS  C:\Users\srhi\AppData\Local\Temp\ccM2qOZf.s 			page 3


  85              		.loc 1 30 0
  86 0046 2000     		movs	r0, r4
  87 0048 FFF7FEFF 		bl	CyDelay
  88              	.LVL11:
  31:main.c        ****         Clock_1_SetDividerValue(A);
  89              		.loc 1 31 0
  90 004c 0021     		movs	r1, #0
  91 004e 8E48     		ldr	r0, .L2+8
  92 0050 FFF7FEFF 		bl	Clock_1_SetFractionalDividerRegister
  93              	.LVL12:
  32:main.c        ****         CyDelay(delay);
  94              		.loc 1 32 0
  95 0054 2000     		movs	r0, r4
  96 0056 FFF7FEFF 		bl	CyDelay
  97              	.LVL13:
  33:main.c        ****         Clock_1_SetDividerValue(G);
  98              		.loc 1 33 0
  99 005a 0021     		movs	r1, #0
 100 005c 2800     		movs	r0, r5
 101 005e FFF7FEFF 		bl	Clock_1_SetFractionalDividerRegister
 102              	.LVL14:
  34:main.c        ****         CyDelay(delay);
 103              		.loc 1 34 0
 104 0062 2000     		movs	r0, r4
 105 0064 FFF7FEFF 		bl	CyDelay
 106              	.LVL15:
  35:main.c        ****         /*extra Delay*/CyDelay(3*delay);
 107              		.loc 1 35 0
 108 0068 6600     		lsls	r6, r4, #1
 109 006a 3619     		adds	r6, r6, r4
 110 006c 3000     		movs	r0, r6
 111 006e FFF7FEFF 		bl	CyDelay
 112              	.LVL16:
  36:main.c        **** 
  37:main.c        ****         Clock_1_SetDividerValue(F);
 113              		.loc 1 37 0
 114 0072 864F     		ldr	r7, .L2+12
 115 0074 0021     		movs	r1, #0
 116 0076 3800     		movs	r0, r7
 117 0078 FFF7FEFF 		bl	Clock_1_SetFractionalDividerRegister
 118              	.LVL17:
  38:main.c        ****         CyDelay(delay);
 119              		.loc 1 38 0
 120 007c 2000     		movs	r0, r4
 121 007e FFF7FEFF 		bl	CyDelay
 122              	.LVL18:
  39:main.c        ****         Clock_1_SetDividerValue(F);
 123              		.loc 1 39 0
 124 0082 0021     		movs	r1, #0
 125 0084 3800     		movs	r0, r7
 126 0086 FFF7FEFF 		bl	Clock_1_SetFractionalDividerRegister
 127              	.LVL19:
  40:main.c        ****         CyDelay(delay);
 128              		.loc 1 40 0
 129 008a 2000     		movs	r0, r4
 130 008c FFF7FEFF 		bl	CyDelay
 131              	.LVL20:
ARM GAS  C:\Users\srhi\AppData\Local\Temp\ccM2qOZf.s 			page 4


  41:main.c        ****         Clock_1_SetDividerValue(E);
 132              		.loc 1 41 0
 133 0090 0021     		movs	r1, #0
 134 0092 7F48     		ldr	r0, .L2+16
 135 0094 FFF7FEFF 		bl	Clock_1_SetFractionalDividerRegister
 136              	.LVL21:
  42:main.c        ****         CyDelay(delay);
 137              		.loc 1 42 0
 138 0098 2000     		movs	r0, r4
 139 009a FFF7FEFF 		bl	CyDelay
 140              	.LVL22:
  43:main.c        ****         Clock_1_SetDividerValue(E);
 141              		.loc 1 43 0
 142 009e 0021     		movs	r1, #0
 143 00a0 7B48     		ldr	r0, .L2+16
 144 00a2 FFF7FEFF 		bl	Clock_1_SetFractionalDividerRegister
 145              	.LVL23:
  44:main.c        ****         CyDelay(delay);
 146              		.loc 1 44 0
 147 00a6 2000     		movs	r0, r4
 148 00a8 FFF7FEFF 		bl	CyDelay
 149              	.LVL24:
  45:main.c        ****         Clock_1_SetDividerValue(D);
 150              		.loc 1 45 0
 151 00ac 0021     		movs	r1, #0
 152 00ae 7948     		ldr	r0, .L2+20
 153 00b0 FFF7FEFF 		bl	Clock_1_SetFractionalDividerRegister
 154              	.LVL25:
  46:main.c        ****         CyDelay(delay);
 155              		.loc 1 46 0
 156 00b4 2000     		movs	r0, r4
 157 00b6 FFF7FEFF 		bl	CyDelay
 158              	.LVL26:
  47:main.c        ****         Clock_1_SetDividerValue(D);
 159              		.loc 1 47 0
 160 00ba 0021     		movs	r1, #0
 161 00bc 7548     		ldr	r0, .L2+20
 162 00be FFF7FEFF 		bl	Clock_1_SetFractionalDividerRegister
 163              	.LVL27:
  48:main.c        ****         CyDelay(delay);
 164              		.loc 1 48 0
 165 00c2 2000     		movs	r0, r4
 166 00c4 FFF7FEFF 		bl	CyDelay
 167              	.LVL28:
  49:main.c        ****         Clock_1_SetDividerValue(C);
 168              		.loc 1 49 0
 169 00c8 0021     		movs	r1, #0
 170 00ca 6D48     		ldr	r0, .L2
 171 00cc FFF7FEFF 		bl	Clock_1_SetFractionalDividerRegister
 172              	.LVL29:
  50:main.c        ****         CyDelay(delay);
 173              		.loc 1 50 0
 174 00d0 2000     		movs	r0, r4
 175 00d2 FFF7FEFF 		bl	CyDelay
 176              	.LVL30:
  51:main.c        ****         /*extra Delay*/CyDelay(3*delay);
 177              		.loc 1 51 0
ARM GAS  C:\Users\srhi\AppData\Local\Temp\ccM2qOZf.s 			page 5


 178 00d6 3000     		movs	r0, r6
 179 00d8 FFF7FEFF 		bl	CyDelay
 180              	.LVL31:
  52:main.c        **** 
  53:main.c        ****         Clock_1_SetDividerValue(G);
 181              		.loc 1 53 0
 182 00dc 0021     		movs	r1, #0
 183 00de 2800     		movs	r0, r5
 184 00e0 FFF7FEFF 		bl	Clock_1_SetFractionalDividerRegister
 185              	.LVL32:
  54:main.c        ****         CyDelay(delay);
 186              		.loc 1 54 0
 187 00e4 2000     		movs	r0, r4
 188 00e6 FFF7FEFF 		bl	CyDelay
 189              	.LVL33:
  55:main.c        ****         Clock_1_SetDividerValue(G);
 190              		.loc 1 55 0
 191 00ea 0021     		movs	r1, #0
 192 00ec 2800     		movs	r0, r5
 193 00ee FFF7FEFF 		bl	Clock_1_SetFractionalDividerRegister
 194              	.LVL34:
  56:main.c        ****         CyDelay(delay);
 195              		.loc 1 56 0
 196 00f2 2000     		movs	r0, r4
 197 00f4 FFF7FEFF 		bl	CyDelay
 198              	.LVL35:
  57:main.c        ****         Clock_1_SetDividerValue(F);
 199              		.loc 1 57 0
 200 00f8 0021     		movs	r1, #0
 201 00fa 3800     		movs	r0, r7
 202 00fc FFF7FEFF 		bl	Clock_1_SetFractionalDividerRegister
 203              	.LVL36:
  58:main.c        ****         CyDelay(delay);
 204              		.loc 1 58 0
 205 0100 2000     		movs	r0, r4
 206 0102 FFF7FEFF 		bl	CyDelay
 207              	.LVL37:
  59:main.c        ****         Clock_1_SetDividerValue(F);
 208              		.loc 1 59 0
 209 0106 0021     		movs	r1, #0
 210 0108 3800     		movs	r0, r7
 211 010a FFF7FEFF 		bl	Clock_1_SetFractionalDividerRegister
 212              	.LVL38:
  60:main.c        ****         CyDelay(delay);
 213              		.loc 1 60 0
 214 010e 2000     		movs	r0, r4
 215 0110 FFF7FEFF 		bl	CyDelay
 216              	.LVL39:
  61:main.c        ****         Clock_1_SetDividerValue(E);
 217              		.loc 1 61 0
 218 0114 0021     		movs	r1, #0
 219 0116 5E48     		ldr	r0, .L2+16
 220 0118 FFF7FEFF 		bl	Clock_1_SetFractionalDividerRegister
 221              	.LVL40:
  62:main.c        ****         CyDelay(delay);
 222              		.loc 1 62 0
 223 011c 2000     		movs	r0, r4
ARM GAS  C:\Users\srhi\AppData\Local\Temp\ccM2qOZf.s 			page 6


 224 011e FFF7FEFF 		bl	CyDelay
 225              	.LVL41:
  63:main.c        ****         Clock_1_SetDividerValue(E);
 226              		.loc 1 63 0
 227 0122 0021     		movs	r1, #0
 228 0124 5A48     		ldr	r0, .L2+16
 229 0126 FFF7FEFF 		bl	Clock_1_SetFractionalDividerRegister
 230              	.LVL42:
  64:main.c        ****         CyDelay(delay);
 231              		.loc 1 64 0
 232 012a 2000     		movs	r0, r4
 233 012c FFF7FEFF 		bl	CyDelay
 234              	.LVL43:
  65:main.c        ****         Clock_1_SetDividerValue(G);
 235              		.loc 1 65 0
 236 0130 0021     		movs	r1, #0
 237 0132 2800     		movs	r0, r5
 238 0134 FFF7FEFF 		bl	Clock_1_SetFractionalDividerRegister
 239              	.LVL44:
  66:main.c        ****         CyDelay(delay);
 240              		.loc 1 66 0
 241 0138 2000     		movs	r0, r4
 242 013a FFF7FEFF 		bl	CyDelay
 243              	.LVL45:
  67:main.c        ****         /*extra Delay*/CyDelay(3*delay);
 244              		.loc 1 67 0
 245 013e 3000     		movs	r0, r6
 246 0140 FFF7FEFF 		bl	CyDelay
 247              	.LVL46:
  68:main.c        **** 
  69:main.c        ****         Clock_1_SetDividerValue(G);
 248              		.loc 1 69 0
 249 0144 0021     		movs	r1, #0
 250 0146 2800     		movs	r0, r5
 251 0148 FFF7FEFF 		bl	Clock_1_SetFractionalDividerRegister
 252              	.LVL47:
  70:main.c        ****         CyDelay(delay);
 253              		.loc 1 70 0
 254 014c 2000     		movs	r0, r4
 255 014e FFF7FEFF 		bl	CyDelay
 256              	.LVL48:
  71:main.c        ****         Clock_1_SetDividerValue(G);
 257              		.loc 1 71 0
 258 0152 0021     		movs	r1, #0
 259 0154 2800     		movs	r0, r5
 260 0156 FFF7FEFF 		bl	Clock_1_SetFractionalDividerRegister
 261              	.LVL49:
  72:main.c        ****         CyDelay(delay);
 262              		.loc 1 72 0
 263 015a 2000     		movs	r0, r4
 264 015c FFF7FEFF 		bl	CyDelay
 265              	.LVL50:
  73:main.c        ****         Clock_1_SetDividerValue(F);
 266              		.loc 1 73 0
 267 0160 0021     		movs	r1, #0
 268 0162 3800     		movs	r0, r7
 269 0164 FFF7FEFF 		bl	Clock_1_SetFractionalDividerRegister
ARM GAS  C:\Users\srhi\AppData\Local\Temp\ccM2qOZf.s 			page 7


 270              	.LVL51:
  74:main.c        ****         CyDelay(delay);
 271              		.loc 1 74 0
 272 0168 2000     		movs	r0, r4
 273 016a FFF7FEFF 		bl	CyDelay
 274              	.LVL52:
  75:main.c        ****         Clock_1_SetDividerValue(F);
 275              		.loc 1 75 0
 276 016e 0021     		movs	r1, #0
 277 0170 3800     		movs	r0, r7
 278 0172 FFF7FEFF 		bl	Clock_1_SetFractionalDividerRegister
 279              	.LVL53:
  76:main.c        ****         CyDelay(delay);
 280              		.loc 1 76 0
 281 0176 2000     		movs	r0, r4
 282 0178 FFF7FEFF 		bl	CyDelay
 283              	.LVL54:
  77:main.c        ****         Clock_1_SetDividerValue(E);
 284              		.loc 1 77 0
 285 017c 0021     		movs	r1, #0
 286 017e 4448     		ldr	r0, .L2+16
 287 0180 FFF7FEFF 		bl	Clock_1_SetFractionalDividerRegister
 288              	.LVL55:
  78:main.c        ****         CyDelay(delay);
 289              		.loc 1 78 0
 290 0184 2000     		movs	r0, r4
 291 0186 FFF7FEFF 		bl	CyDelay
 292              	.LVL56:
  79:main.c        ****         Clock_1_SetDividerValue(E);
 293              		.loc 1 79 0
 294 018a 0021     		movs	r1, #0
 295 018c 4048     		ldr	r0, .L2+16
 296 018e FFF7FEFF 		bl	Clock_1_SetFractionalDividerRegister
 297              	.LVL57:
  80:main.c        ****         CyDelay(delay);
 298              		.loc 1 80 0
 299 0192 2000     		movs	r0, r4
 300 0194 FFF7FEFF 		bl	CyDelay
 301              	.LVL58:
  81:main.c        ****         Clock_1_SetDividerValue(G);
 302              		.loc 1 81 0
 303 0198 0021     		movs	r1, #0
 304 019a 2800     		movs	r0, r5
 305 019c FFF7FEFF 		bl	Clock_1_SetFractionalDividerRegister
 306              	.LVL59:
  82:main.c        ****         CyDelay(delay);
 307              		.loc 1 82 0
 308 01a0 2000     		movs	r0, r4
 309 01a2 FFF7FEFF 		bl	CyDelay
 310              	.LVL60:
  83:main.c        ****         /*extra Delay*/CyDelay(3*delay);
 311              		.loc 1 83 0
 312 01a6 3000     		movs	r0, r6
 313 01a8 FFF7FEFF 		bl	CyDelay
 314              	.LVL61:
  84:main.c        **** 
  85:main.c        ****         Clock_1_SetDividerValue(C);
ARM GAS  C:\Users\srhi\AppData\Local\Temp\ccM2qOZf.s 			page 8


 315              		.loc 1 85 0
 316 01ac 0021     		movs	r1, #0
 317 01ae 3448     		ldr	r0, .L2
 318 01b0 FFF7FEFF 		bl	Clock_1_SetFractionalDividerRegister
 319              	.LVL62:
  86:main.c        ****         CyDelay(delay);
 320              		.loc 1 86 0
 321 01b4 2000     		movs	r0, r4
 322 01b6 FFF7FEFF 		bl	CyDelay
 323              	.LVL63:
  87:main.c        ****         Clock_1_SetDividerValue(C);
 324              		.loc 1 87 0
 325 01ba 0021     		movs	r1, #0
 326 01bc 3048     		ldr	r0, .L2
 327 01be FFF7FEFF 		bl	Clock_1_SetFractionalDividerRegister
 328              	.LVL64:
  88:main.c        ****         CyDelay(delay);
 329              		.loc 1 88 0
 330 01c2 2000     		movs	r0, r4
 331 01c4 FFF7FEFF 		bl	CyDelay
 332              	.LVL65:
  89:main.c        ****         Clock_1_SetDividerValue(G);
 333              		.loc 1 89 0
 334 01c8 0021     		movs	r1, #0
 335 01ca 2800     		movs	r0, r5
 336 01cc FFF7FEFF 		bl	Clock_1_SetFractionalDividerRegister
 337              	.LVL66:
  90:main.c        ****         CyDelay(delay);
 338              		.loc 1 90 0
 339 01d0 2000     		movs	r0, r4
 340 01d2 FFF7FEFF 		bl	CyDelay
 341              	.LVL67:
  91:main.c        ****         Clock_1_SetDividerValue(G);
 342              		.loc 1 91 0
 343 01d6 0021     		movs	r1, #0
 344 01d8 2800     		movs	r0, r5
 345 01da FFF7FEFF 		bl	Clock_1_SetFractionalDividerRegister
 346              	.LVL68:
  92:main.c        ****         CyDelay(delay);
 347              		.loc 1 92 0
 348 01de 2000     		movs	r0, r4
 349 01e0 FFF7FEFF 		bl	CyDelay
 350              	.LVL69:
  93:main.c        ****         Clock_1_SetDividerValue(A);
 351              		.loc 1 93 0
 352 01e4 0021     		movs	r1, #0
 353 01e6 2848     		ldr	r0, .L2+8
 354 01e8 FFF7FEFF 		bl	Clock_1_SetFractionalDividerRegister
 355              	.LVL70:
  94:main.c        ****         CyDelay(delay);
 356              		.loc 1 94 0
 357 01ec 2000     		movs	r0, r4
 358 01ee FFF7FEFF 		bl	CyDelay
 359              	.LVL71:
  95:main.c        ****         Clock_1_SetDividerValue(A);
 360              		.loc 1 95 0
 361 01f2 0021     		movs	r1, #0
ARM GAS  C:\Users\srhi\AppData\Local\Temp\ccM2qOZf.s 			page 9


 362 01f4 2448     		ldr	r0, .L2+8
 363 01f6 FFF7FEFF 		bl	Clock_1_SetFractionalDividerRegister
 364              	.LVL72:
  96:main.c        ****         CyDelay(delay);
 365              		.loc 1 96 0
 366 01fa 2000     		movs	r0, r4
 367 01fc FFF7FEFF 		bl	CyDelay
 368              	.LVL73:
  97:main.c        ****         Clock_1_SetDividerValue(G);
 369              		.loc 1 97 0
 370 0200 0021     		movs	r1, #0
 371 0202 2800     		movs	r0, r5
 372 0204 FFF7FEFF 		bl	Clock_1_SetFractionalDividerRegister
 373              	.LVL74:
  98:main.c        ****         CyDelay(delay);
 374              		.loc 1 98 0
 375 0208 2000     		movs	r0, r4
 376 020a FFF7FEFF 		bl	CyDelay
 377              	.LVL75:
  99:main.c        ****         /*extra Delay*/CyDelay(3*delay);
 378              		.loc 1 99 0
 379 020e 3000     		movs	r0, r6
 380 0210 FFF7FEFF 		bl	CyDelay
 381              	.LVL76:
 100:main.c        ****     
 101:main.c        ****         Clock_1_SetDividerValue(F);
 382              		.loc 1 101 0
 383 0214 0021     		movs	r1, #0
 384 0216 3800     		movs	r0, r7
 385 0218 FFF7FEFF 		bl	Clock_1_SetFractionalDividerRegister
 386              	.LVL77:
 102:main.c        ****         CyDelay(delay);
 387              		.loc 1 102 0
 388 021c 2000     		movs	r0, r4
 389 021e FFF7FEFF 		bl	CyDelay
 390              	.LVL78:
 103:main.c        ****         Clock_1_SetDividerValue(F);
 391              		.loc 1 103 0
 392 0222 0021     		movs	r1, #0
 393 0224 3800     		movs	r0, r7
 394 0226 FFF7FEFF 		bl	Clock_1_SetFractionalDividerRegister
 395              	.LVL79:
 104:main.c        ****         CyDelay(delay);
 396              		.loc 1 104 0
 397 022a 2000     		movs	r0, r4
 398 022c FFF7FEFF 		bl	CyDelay
 399              	.LVL80:
 105:main.c        ****         Clock_1_SetDividerValue(E);
 400              		.loc 1 105 0
 401 0230 0021     		movs	r1, #0
 402 0232 1748     		ldr	r0, .L2+16
 403 0234 FFF7FEFF 		bl	Clock_1_SetFractionalDividerRegister
 404              	.LVL81:
 106:main.c        ****         CyDelay(delay);
 405              		.loc 1 106 0
 406 0238 2000     		movs	r0, r4
 407 023a FFF7FEFF 		bl	CyDelay
ARM GAS  C:\Users\srhi\AppData\Local\Temp\ccM2qOZf.s 			page 10


 408              	.LVL82:
 107:main.c        ****         Clock_1_SetDividerValue(E);
 409              		.loc 1 107 0
 410 023e 0021     		movs	r1, #0
 411 0240 1348     		ldr	r0, .L2+16
 412 0242 FFF7FEFF 		bl	Clock_1_SetFractionalDividerRegister
 413              	.LVL83:
 108:main.c        ****         CyDelay(delay);
 414              		.loc 1 108 0
 415 0246 2000     		movs	r0, r4
 416 0248 FFF7FEFF 		bl	CyDelay
 417              	.LVL84:
 109:main.c        ****         Clock_1_SetDividerValue(D);
 418              		.loc 1 109 0
 419 024c 0021     		movs	r1, #0
 420 024e 1148     		ldr	r0, .L2+20
 421 0250 FFF7FEFF 		bl	Clock_1_SetFractionalDividerRegister
 422              	.LVL85:
 110:main.c        ****         CyDelay(delay);
 423              		.loc 1 110 0
 424 0254 2000     		movs	r0, r4
 425 0256 FFF7FEFF 		bl	CyDelay
 426              	.LVL86:
 111:main.c        ****         Clock_1_SetDividerValue(D);
 427              		.loc 1 111 0
 428 025a 0021     		movs	r1, #0
 429 025c 0D48     		ldr	r0, .L2+20
 430 025e FFF7FEFF 		bl	Clock_1_SetFractionalDividerRegister
 431              	.LVL87:
 112:main.c        ****         CyDelay(delay);
 432              		.loc 1 112 0
 433 0262 2000     		movs	r0, r4
 434 0264 FFF7FEFF 		bl	CyDelay
 435              	.LVL88:
 113:main.c        ****         Clock_1_SetDividerValue(C);
 436              		.loc 1 113 0
 437 0268 0021     		movs	r1, #0
 438 026a 0548     		ldr	r0, .L2
 439 026c FFF7FEFF 		bl	Clock_1_SetFractionalDividerRegister
 440              	.LVL89:
 114:main.c        ****         CyDelay(delay);
 441              		.loc 1 114 0
 442 0270 2000     		movs	r0, r4
 443 0272 FFF7FEFF 		bl	CyDelay
 444              	.LVL90:
 115:main.c        ****         /*extra Delay*/CyDelay(3*delay);
 445              		.loc 1 115 0
 446 0276 3000     		movs	r0, r6
 447 0278 FFF7FEFF 		bl	CyDelay
 448              	.LVL91:
 116:main.c        **** }
 449              		.loc 1 116 0
 450              		@ sp needed
 451              	.LVL92:
 452 027c F8BD     		pop	{r3, r4, r5, r6, r7, pc}
 453              	.L3:
 454 027e C046     		.align	2
ARM GAS  C:\Users\srhi\AppData\Local\Temp\ccM2qOZf.s 			page 11


 455              	.L2:
 456 0280 15040000 		.word	1045
 457 0284 1E060000 		.word	1566
 458 0288 DF060000 		.word	1759
 459 028c 73050000 		.word	1395
 460 0290 25050000 		.word	1317
 461 0294 95040000 		.word	1173
 462              		.cfi_endproc
 463              	.LFE32:
 464              		.size	twinkle, .-twinkle
 465              		.section	.text.main,"ax",%progbits
 466              		.align	2
 467              		.global	main
 468              		.code	16
 469              		.thumb_func
 470              		.type	main, %function
 471              	main:
 472              	.LFB33:
 117:main.c        **** int main(void)
 118:main.c        **** {
 473              		.loc 1 118 0
 474              		.cfi_startproc
 475              		@ args = 0, pretend = 0, frame = 0
 476              		@ frame_needed = 0, uses_anonymous_args = 0
 477 0000 10B5     		push	{r4, lr}
 478              		.cfi_def_cfa_offset 8
 479              		.cfi_offset 4, -8
 480              		.cfi_offset 14, -4
 119:main.c        ****     CyGlobalIntEnable; /* Enable global interrupts. */
 481              		.loc 1 119 0
 482              		.syntax divided
 483              	@ 119 "main.c" 1
 484 0002 62B6     		CPSIE   i
 485              	@ 0 "" 2
 486              	.LVL93:
 120:main.c        **** 
 121:main.c        ****     int delay = 300,i=0;
 122:main.c        ****     twinkle(delay);    
 487              		.loc 1 122 0
 488              		.thumb
 489              		.syntax unified
 490 0004 9620     		movs	r0, #150
 491 0006 4000     		lsls	r0, r0, #1
 492 0008 FFF7FEFF 		bl	twinkle
 493              	.LVL94:
 121:main.c        ****     twinkle(delay);    
 494              		.loc 1 121 0
 495 000c 0024     		movs	r4, #0
 496              	.LVL95:
 497              	.L6:
 123:main.c        ****     for(;;)
 124:main.c        ****     {
 125:main.c        ****         Clock_1_SetDividerValue(i);
 498              		.loc 1 125 0
 499 000e 601E     		subs	r0, r4, #1
 500 0010 80B2     		uxth	r0, r0
 501 0012 0021     		movs	r1, #0
ARM GAS  C:\Users\srhi\AppData\Local\Temp\ccM2qOZf.s 			page 12


 502 0014 FFF7FEFF 		bl	Clock_1_SetFractionalDividerRegister
 503              	.LVL96:
 126:main.c        ****         CyDelay(1);
 504              		.loc 1 126 0
 505 0018 0120     		movs	r0, #1
 506 001a FFF7FEFF 		bl	CyDelay
 507              	.LVL97:
 127:main.c        ****        
 128:main.c        ****         if(i==5000){
 508              		.loc 1 128 0
 509 001e 034B     		ldr	r3, .L7
 510 0020 9C42     		cmp	r4, r3
 511 0022 01D0     		beq	.L5
 129:main.c        ****             break;
 130:main.c        ****         }
 131:main.c        ****         i++;
 512              		.loc 1 131 0
 513 0024 0134     		adds	r4, r4, #1
 514              	.LVL98:
 132:main.c        ****     }
 515              		.loc 1 132 0
 516 0026 F2E7     		b	.L6
 517              	.L5:
 133:main.c        **** }    
 518              		.loc 1 133 0
 519 0028 0020     		movs	r0, #0
 520              		@ sp needed
 521              	.LVL99:
 522 002a 10BD     		pop	{r4, pc}
 523              	.L8:
 524              		.align	2
 525              	.L7:
 526 002c 88130000 		.word	5000
 527              		.cfi_endproc
 528              	.LFE33:
 529              		.size	main, .-main
 530              		.text
 531              	.Letext0:
 532              		.file 2 "Generated_Source\\PSoC4/Clock_1.h"
 533              		.file 3 "Generated_Source\\PSoC4/CyLib.h"