ARM GAS  C:\Users\srhi\AppData\Local\Temp\cc9diTRb.s 			page 1


   1              		.syntax unified
   2              		.cpu cortex-m0
   3              		.fpu softvfp
   4              		.eabi_attribute 20, 1
   5              		.eabi_attribute 21, 1
   6              		.eabi_attribute 23, 3
   7              		.eabi_attribute 24, 1
   8              		.eabi_attribute 25, 1
   9              		.eabi_attribute 26, 1
  10              		.eabi_attribute 30, 1
  11              		.eabi_attribute 34, 0
  12              		.eabi_attribute 18, 4
  13              		.thumb
  14              		.syntax unified
  15              		.file	"main.c"
  16              		.text
  17              	.Ltext0:
  18              		.cfi_sections	.debug_frame
  19              		.section	.text.l22_faster,"ax",%progbits
  20              		.align	2
  21              		.global	l22_faster
  22              		.code	16
  23              		.thumb_func
  24              		.type	l22_faster, %function
  25              	l22_faster:
  26              	.LFB32:
  27              		.file 1 "main.c"
   1:main.c        **** /* ========================================
   2:main.c        ****  *
   3:main.c        ****  * Copyright YOUR COMPANY, THE YEAR
   4:main.c        ****  * All Rights Reserved
   5:main.c        ****  * UNPUBLISHED, LICENSED SOFTWARE.
   6:main.c        ****  *
   7:main.c        ****  * CONFIDENTIAL AND PROPRIETARY INFORMATION
   8:main.c        ****  * WHICH IS THE PROPERTY OF your company.
   9:main.c        ****  *
  10:main.c        ****  * ========================================
  11:main.c        **** */
  12:main.c        **** #include "project.h"
  13:main.c        **** int l22_faster(){
  28              		.loc 1 13 0
  29              		.cfi_startproc
  30              		@ args = 0, pretend = 0, frame = 0
  31              		@ frame_needed = 0, uses_anonymous_args = 0
  32              		@ link register save eliminated.
  14:main.c        ****     return 200;
  15:main.c        **** }
  33              		.loc 1 15 0
  34 0000 C820     		movs	r0, #200
  35              		@ sp needed
  36 0002 7047     		bx	lr
  37              		.cfi_endproc
  38              	.LFE32:
  39              		.size	l22_faster, .-l22_faster
  40              		.section	.text.l23_different_led_different_rates,"ax",%progbits
  41              		.align	2
  42              		.global	l23_different_led_different_rates
ARM GAS  C:\Users\srhi\AppData\Local\Temp\cc9diTRb.s 			page 2


  43              		.code	16
  44              		.thumb_func
  45              		.type	l23_different_led_different_rates, %function
  46              	l23_different_led_different_rates:
  47              	.LFB33:
  16:main.c        **** void l23_different_led_different_rates(){  // Not Done correctly
  48              		.loc 1 16 0
  49              		.cfi_startproc
  50              		@ Volatile: function does not return.
  51              		@ args = 0, pretend = 0, frame = 0
  52              		@ frame_needed = 0, uses_anonymous_args = 0
  53 0000 10B5     		push	{r4, lr}
  54              		.cfi_def_cfa_offset 8
  55              		.cfi_offset 4, -8
  56              		.cfi_offset 14, -4
  57              	.L4:
  17:main.c        ****     for(;;){
  18:main.c        ****         Pin_blue_Write(0);
  58              		.loc 1 18 0
  59 0002 0020     		movs	r0, #0
  60 0004 FFF7FEFF 		bl	Pin_blue_Write
  61              	.LVL0:
  19:main.c        ****         Pin_green_Write(1);
  62              		.loc 1 19 0
  63 0008 0120     		movs	r0, #1
  64 000a FFF7FEFF 		bl	Pin_green_Write
  65              	.LVL1:
  20:main.c        ****         CyDelay(1000);
  66              		.loc 1 20 0
  67 000e FA24     		movs	r4, #250
  68 0010 A400     		lsls	r4, r4, #2
  69 0012 2000     		movs	r0, r4
  70 0014 FFF7FEFF 		bl	CyDelay
  71              	.LVL2:
  21:main.c        ****         Pin_green_Write( ~ Pin_green_Read() );
  72              		.loc 1 21 0
  73 0018 FFF7FEFF 		bl	Pin_green_Read
  74              	.LVL3:
  75 001c C043     		mvns	r0, r0
  76 001e C0B2     		uxtb	r0, r0
  77 0020 FFF7FEFF 		bl	Pin_green_Write
  78              	.LVL4:
  22:main.c        ****         CyDelay(1000);
  79              		.loc 1 22 0
  80 0024 2000     		movs	r0, r4
  81 0026 FFF7FEFF 		bl	CyDelay
  82              	.LVL5:
  23:main.c        ****         if(Pin_green_Read() == 1){
  83              		.loc 1 23 0
  84 002a FFF7FEFF 		bl	Pin_green_Read
  85              	.LVL6:
  86 002e 0128     		cmp	r0, #1
  87 0030 02D1     		bne	.L3
  24:main.c        ****             
  25:main.c        ****             CyDelay(1000);
  88              		.loc 1 25 0
  89 0032 2000     		movs	r0, r4
ARM GAS  C:\Users\srhi\AppData\Local\Temp\cc9diTRb.s 			page 3


  90 0034 FFF7FEFF 		bl	CyDelay
  91              	.LVL7:
  92              	.L3:
  26:main.c        ****         }
  27:main.c        ****         
  28:main.c        ****         Pin_blue_Write(1);
  93              		.loc 1 28 0
  94 0038 0120     		movs	r0, #1
  95 003a FFF7FEFF 		bl	Pin_blue_Write
  96              	.LVL8:
  29:main.c        ****         CyDelay(1000);
  97              		.loc 1 29 0
  98 003e FA24     		movs	r4, #250
  99 0040 A400     		lsls	r4, r4, #2
 100 0042 2000     		movs	r0, r4
 101 0044 FFF7FEFF 		bl	CyDelay
 102              	.LVL9:
  30:main.c        ****         CyDelay(1000);
 103              		.loc 1 30 0
 104 0048 2000     		movs	r0, r4
 105 004a FFF7FEFF 		bl	CyDelay
 106              	.LVL10:
  31:main.c        ****     }
 107              		.loc 1 31 0
 108 004e D8E7     		b	.L4
 109              		.cfi_endproc
 110              	.LFE33:
 111              		.size	l23_different_led_different_rates, .-l23_different_led_different_rates
 112              		.section	.text.l24_different_duty_cycle,"ax",%progbits
 113              		.align	2
 114              		.global	l24_different_duty_cycle
 115              		.code	16
 116              		.thumb_func
 117              		.type	l24_different_duty_cycle, %function
 118              	l24_different_duty_cycle:
 119              	.LFB34:
  32:main.c        **** }
  33:main.c        **** void l24_different_duty_cycle(){
 120              		.loc 1 33 0
 121              		.cfi_startproc
 122              		@ Volatile: function does not return.
 123              		@ args = 0, pretend = 0, frame = 0
 124              		@ frame_needed = 0, uses_anonymous_args = 0
 125 0000 10B5     		push	{r4, lr}
 126              		.cfi_def_cfa_offset 8
 127              		.cfi_offset 4, -8
 128              		.cfi_offset 14, -4
 129              	.L6:
  34:main.c        ****     for(;;){
  35:main.c        ****         Pin_blue_Write(0);
 130              		.loc 1 35 0 discriminator 1
 131 0002 0020     		movs	r0, #0
 132 0004 FFF7FEFF 		bl	Pin_blue_Write
 133              	.LVL11:
  36:main.c        ****         CyDelay(800);
 134              		.loc 1 36 0 discriminator 1
 135 0008 C820     		movs	r0, #200
ARM GAS  C:\Users\srhi\AppData\Local\Temp\cc9diTRb.s 			page 4


 136 000a 8000     		lsls	r0, r0, #2
 137 000c FFF7FEFF 		bl	CyDelay
 138              	.LVL12:
  37:main.c        ****         Pin_blue_Write(1);
 139              		.loc 1 37 0 discriminator 1
 140 0010 0120     		movs	r0, #1
 141 0012 FFF7FEFF 		bl	Pin_blue_Write
 142              	.LVL13:
  38:main.c        ****         CyDelay(200);
 143              		.loc 1 38 0 discriminator 1
 144 0016 C820     		movs	r0, #200
 145 0018 FFF7FEFF 		bl	CyDelay
 146              	.LVL14:
 147 001c F1E7     		b	.L6
 148              		.cfi_endproc
 149              	.LFE34:
 150              		.size	l24_different_duty_cycle, .-l24_different_duty_cycle
 151 001e C046     		.section	.text.main,"ax",%progbits
 152              		.align	2
 153              		.global	main
 154              		.code	16
 155              		.thumb_func
 156              		.type	main, %function
 157              	main:
 158              	.LFB35:
  39:main.c        ****     }
  40:main.c        **** }
  41:main.c        **** int main(void)
  42:main.c        **** {
 159              		.loc 1 42 0
 160              		.cfi_startproc
 161              		@ Volatile: function does not return.
 162              		@ args = 0, pretend = 0, frame = 0
 163              		@ frame_needed = 0, uses_anonymous_args = 0
 164 0000 10B5     		push	{r4, lr}
 165              		.cfi_def_cfa_offset 8
 166              		.cfi_offset 4, -8
 167              		.cfi_offset 14, -4
  43:main.c        ****     CyGlobalIntEnable; /* Enable global interrupts. */
 168              		.loc 1 43 0
 169              		.syntax divided
 170              	@ 43 "main.c" 1
 171 0002 62B6     		CPSIE   i
 172              	@ 0 "" 2
  44:main.c        **** 
  45:main.c        ****     /* Place your initialization/startup code here (e.g. MyInst_Start()) */
  46:main.c        ****     
  47:main.c        ****     l23_different_led_different_rates();
 173              		.loc 1 47 0
 174              		.thumb
 175              		.syntax unified
 176 0004 FFF7FEFF 		bl	l23_different_led_different_rates
 177              	.LVL15:
 178              		.cfi_endproc
 179              	.LFE35:
 180              		.size	main, .-main
 181              		.text
ARM GAS  C:\Users\srhi\AppData\Local\Temp\cc9diTRb.s 			page 5


 182              	.Letext0:
 183              		.file 2 "Generated_Source\\PSoC4/Pin_blue.h"
 184              		.file 3 "Generated_Source\\PSoC4/Pin_green.h"
 185              		.file 4 "Generated_Source\\PSoC4/CyLib.h"